
test-p:     file format elf32-littleriscv


Disassembly of section .text:

80000000 <boot>:
80000000:	ff010113          	addi	sp,sp,-16
80000004:	00112623          	sw	ra,12(sp)
80000008:	8001d2b7          	lui	t0,0x8001d
8000000c:	0022a223          	sw	sp,4(t0) # 8001d004 <__stack_top+0xcbb1d004>
80000010:	8001c2b7          	lui	t0,0x8001c
80000014:	2582a103          	lw	sp,600(t0) # 8001c258 <__stack_top+0xcbb1c258>
80000018:	800007b7          	lui	a5,0x80000
8000001c:	2c078793          	addi	a5,a5,704 # 800002c0 <__stack_top+0xcbb002c0>
80000020:	00078513          	mv	a0,a5
80000024:	284000ef          	jal	ra,800002a8 <install_isr>
80000028:	209000ef          	jal	ra,80000a30 <main>
8000002c:	8001d2b7          	lui	t0,0x8001d
80000030:	0042a103          	lw	sp,4(t0) # 8001d004 <__stack_top+0xcbb1d004>
80000034:	00000013          	nop
80000038:	00c12083          	lw	ra,12(sp)
8000003c:	01010113          	addi	sp,sp,16
80000040:	00008067          	ret

80000044 <pop_tf>:
80000044:	ff010113          	addi	sp,sp,-16
80000048:	00a12623          	sw	a0,12(sp)
8000004c:	08452283          	lw	t0,132(a0)
80000050:	14129073          	csrw	sepc,t0
80000054:	00452083          	lw	ra,4(a0)
80000058:	00852103          	lw	sp,8(a0)
8000005c:	00c52183          	lw	gp,12(a0)
80000060:	01052203          	lw	tp,16(a0)
80000064:	01452283          	lw	t0,20(a0)
80000068:	01852303          	lw	t1,24(a0)
8000006c:	01c52383          	lw	t2,28(a0)
80000070:	02052403          	lw	s0,32(a0)
80000074:	02452483          	lw	s1,36(a0)
80000078:	02c52583          	lw	a1,44(a0)
8000007c:	03052603          	lw	a2,48(a0)
80000080:	03452683          	lw	a3,52(a0)
80000084:	03852703          	lw	a4,56(a0)
80000088:	03c52783          	lw	a5,60(a0)
8000008c:	04052803          	lw	a6,64(a0)
80000090:	04452883          	lw	a7,68(a0)
80000094:	04852903          	lw	s2,72(a0)
80000098:	04c52983          	lw	s3,76(a0)
8000009c:	05052a03          	lw	s4,80(a0)
800000a0:	05452a83          	lw	s5,84(a0)
800000a4:	05852b03          	lw	s6,88(a0)
800000a8:	05c52b83          	lw	s7,92(a0)
800000ac:	06052c03          	lw	s8,96(a0)
800000b0:	06452c83          	lw	s9,100(a0)
800000b4:	06852d03          	lw	s10,104(a0)
800000b8:	06c52d83          	lw	s11,108(a0)
800000bc:	07052e03          	lw	t3,112(a0)
800000c0:	07452e83          	lw	t4,116(a0)
800000c4:	07852f03          	lw	t5,120(a0)
800000c8:	07c52f83          	lw	t6,124(a0)
800000cc:	02852503          	lw	a0,40(a0)
800000d0:	10200073          	sret
800000d4:	00000013          	nop
800000d8:	01010113          	addi	sp,sp,16
800000dc:	00008067          	ret

800000e0 <vm_boot>:
800000e0:	fc010113          	addi	sp,sp,-64
800000e4:	02112e23          	sw	ra,60(sp)
800000e8:	00a12623          	sw	a0,12(sp)
800000ec:	02012623          	sw	zero,44(sp)
800000f0:	0500006f          	j	80000140 <vm_boot+0x60>
800000f4:	02c12783          	lw	a5,44(sp)
800000f8:	00178793          	addi	a5,a5,1
800000fc:	00c79713          	slli	a4,a5,0xc
80000100:	8001e7b7          	lui	a5,0x8001e
80000104:	00078793          	mv	a5,a5
80000108:	00f707b3          	add	a5,a4,a5
8000010c:	00c7d793          	srli	a5,a5,0xc
80000110:	00a79793          	slli	a5,a5,0xa
80000114:	02c12703          	lw	a4,44(sp)
80000118:	20070693          	addi	a3,a4,512
8000011c:	0017e713          	ori	a4,a5,1
80000120:	8001e7b7          	lui	a5,0x8001e
80000124:	00269693          	slli	a3,a3,0x2
80000128:	00078793          	mv	a5,a5
8000012c:	00f687b3          	add	a5,a3,a5
80000130:	00e7a023          	sw	a4,0(a5) # 8001e000 <__stack_top+0xcbb1e000>
80000134:	02c12783          	lw	a5,44(sp)
80000138:	00178793          	addi	a5,a5,1
8000013c:	02f12623          	sw	a5,44(sp)
80000140:	02c12703          	lw	a4,44(sp)
80000144:	1ff00793          	li	a5,511
80000148:	fae7d6e3          	ble	a4,a5,800000f4 <vm_boot+0x14>
8000014c:	02012423          	sw	zero,40(sp)
80000150:	0780006f          	j	800001c8 <vm_boot+0xe8>
80000154:	02012223          	sw	zero,36(sp)
80000158:	0580006f          	j	800001b0 <vm_boot+0xd0>
8000015c:	02812783          	lw	a5,40(sp)
80000160:	00a79713          	slli	a4,a5,0xa
80000164:	02412783          	lw	a5,36(sp)
80000168:	00f70733          	add	a4,a4,a5
8000016c:	000807b7          	lui	a5,0x80
80000170:	00f707b3          	add	a5,a4,a5
80000174:	00a79793          	slli	a5,a5,0xa
80000178:	02812703          	lw	a4,40(sp)
8000017c:	00170693          	addi	a3,a4,1
80000180:	0df7e713          	ori	a4,a5,223
80000184:	8001e7b7          	lui	a5,0x8001e
80000188:	00a69613          	slli	a2,a3,0xa
8000018c:	02412683          	lw	a3,36(sp)
80000190:	00d606b3          	add	a3,a2,a3
80000194:	00269693          	slli	a3,a3,0x2
80000198:	00078793          	mv	a5,a5
8000019c:	00f687b3          	add	a5,a3,a5
800001a0:	00e7a023          	sw	a4,0(a5) # 8001e000 <__stack_top+0xcbb1e000>
800001a4:	02412783          	lw	a5,36(sp)
800001a8:	00178793          	addi	a5,a5,1
800001ac:	02f12223          	sw	a5,36(sp)
800001b0:	02412703          	lw	a4,36(sp)
800001b4:	3ff00793          	li	a5,1023
800001b8:	fae7f2e3          	bleu	a4,a5,8000015c <vm_boot+0x7c>
800001bc:	02812783          	lw	a5,40(sp)
800001c0:	00178793          	addi	a5,a5,1
800001c4:	02f12423          	sw	a5,40(sp)
800001c8:	02812703          	lw	a4,40(sp)
800001cc:	1ff00793          	li	a5,511
800001d0:	f8e7f2e3          	bleu	a4,a5,80000154 <vm_boot+0x74>
800001d4:	8001e7b7          	lui	a5,0x8001e
800001d8:	00078793          	mv	a5,a5
800001dc:	00001737          	lui	a4,0x1
800001e0:	00f707b3          	add	a5,a4,a5
800001e4:	30000737          	lui	a4,0x30000
800001e8:	0df70713          	addi	a4,a4,223 # 300000df <__heap_size+0x2e0000df>
800001ec:	c0e7a023          	sw	a4,-1024(a5) # 8001dc00 <__stack_top+0xcbb1dc00>
800001f0:	8001e7b7          	lui	a5,0x8001e
800001f4:	00078793          	mv	a5,a5
800001f8:	00001737          	lui	a4,0x1
800001fc:	00f707b3          	add	a5,a4,a5
80000200:	3c000737          	lui	a4,0x3c000
80000204:	0df70713          	addi	a4,a4,223 # 3c0000df <__heap_size+0x3a0000df>
80000208:	f0e7a023          	sw	a4,-256(a5) # 8001df00 <__stack_top+0xcbb1df00>
8000020c:	8001e7b7          	lui	a5,0x8001e
80000210:	0df00713          	li	a4,223
80000214:	00e7a023          	sw	a4,0(a5) # 8001e000 <__stack_top+0xcbb1e000>
80000218:	8001e7b7          	lui	a5,0x8001e
8000021c:	00078793          	mv	a5,a5
80000220:	00c7d713          	srli	a4,a5,0xc
80000224:	800007b7          	lui	a5,0x80000
80000228:	00f767b3          	or	a5,a4,a5
8000022c:	02f12023          	sw	a5,32(sp)
80000230:	02012783          	lw	a5,32(sp)
80000234:	18079073          	csrw	satp,a5
80000238:	ffc007b7          	lui	a5,0xffc00
8000023c:	2c078793          	addi	a5,a5,704 # ffc002c0 <__stack_top+0x4b7002c0>
80000240:	10579073          	csrw	stvec,a5
80000244:	340027f3          	csrr	a5,mscratch
80000248:	00f12e23          	sw	a5,28(sp)
8000024c:	01c12703          	lw	a4,28(sp)
80000250:	7fc007b7          	lui	a5,0x7fc00
80000254:	00f707b3          	add	a5,a4,a5
80000258:	14079073          	csrw	sscratch,a5
8000025c:	0000b7b7          	lui	a5,0xb
80000260:	10078793          	addi	a5,a5,256 # b100 <__stack_size-0x4f00>
80000264:	30279073          	csrw	medeleg,a5
80000268:	000407b7          	lui	a5,0x40
8000026c:	3007a7f3          	csrrs	a5,mstatus,a5
80000270:	00f12c23          	sw	a5,24(sp)
80000274:	30405073          	csrwi	mie,0
80000278:	00c12783          	lw	a5,12(sp)
8000027c:	14179073          	csrw	sepc,a5
80000280:	8001c7b7          	lui	a5,0x8001c
80000284:	b9878513          	addi	a0,a5,-1128 # 8001bb98 <__stack_top+0xcbb1bb98>
80000288:	7b1000ef          	jal	ra,80001238 <printf>
8000028c:	03c12083          	lw	ra,60(sp)
80000290:	04010113          	addi	sp,sp,64
80000294:	10200073          	sret
80000298:	00000013          	nop
8000029c:	03c12083          	lw	ra,60(sp)
800002a0:	04010113          	addi	sp,sp,64
800002a4:	00008067          	ret

800002a8 <install_isr>:
800002a8:	ff010113          	addi	sp,sp,-16
800002ac:	00a12623          	sw	a0,12(sp)
800002b0:	30551073          	csrw	mtvec,a0
800002b4:	00000013          	nop
800002b8:	01010113          	addi	sp,sp,16
800002bc:	00008067          	ret

800002c0 <isr>:
800002c0:	ff010113          	addi	sp,sp,-16
800002c4:	00112623          	sw	ra,12(sp)
800002c8:	8001c7b7          	lui	a5,0x8001c
800002cc:	bb478513          	addi	a0,a5,-1100 # 8001bbb4 <__stack_top+0xcbb1bbb4>
800002d0:	769000ef          	jal	ra,80001238 <printf>
800002d4:	8001c7b7          	lui	a5,0x8001c
800002d8:	bdc78513          	addi	a0,a5,-1060 # 8001bbdc <__stack_top+0xcbb1bbdc>
800002dc:	75d000ef          	jal	ra,80001238 <printf>
800002e0:	342022f3          	csrr	t0,mcause
800002e4:	01f2d293          	srli	t0,t0,0x1f
800002e8:	08028a63          	beqz	t0,8000037c <isr_is_exception>
800002ec:	0140006f          	j	80000300 <isr_is_interrupt>
800002f0:	00000013          	nop
800002f4:	00c12083          	lw	ra,12(sp)
800002f8:	01010113          	addi	sp,sp,16
800002fc:	00008067          	ret

80000300 <isr_is_interrupt>:
80000300:	ff010113          	addi	sp,sp,-16
80000304:	00112623          	sw	ra,12(sp)
80000308:	8001c7b7          	lui	a5,0x8001c
8000030c:	bf878513          	addi	a0,a5,-1032 # 8001bbf8 <__stack_top+0xcbb1bbf8>
80000310:	729000ef          	jal	ra,80001238 <printf>
80000314:	342022f3          	csrr	t0,mcause
80000318:	00129293          	slli	t0,t0,0x1
8000031c:	0012d293          	srli	t0,t0,0x1
80000320:	00000313          	li	t1,0
80000324:	0e628a63          	beq	t0,t1,80000418 <isr_is_UserSoftwareInterrupt>
80000328:	00130313          	addi	t1,t1,1
8000032c:	10628863          	beq	t0,t1,8000043c <isr_is_SupervisorSoftwareInterrupt>
80000330:	00230313          	addi	t1,t1,2
80000334:	12628663          	beq	t0,t1,80000460 <isr_is_MachineSoftwareInterrupt>
80000338:	00130313          	addi	t1,t1,1
8000033c:	14628463          	beq	t0,t1,80000484 <isr_is_UserTimerInterrupt>
80000340:	00130313          	addi	t1,t1,1
80000344:	16628263          	beq	t0,t1,800004a8 <isr_is_SupervisorTimerInterrupt>
80000348:	00230313          	addi	t1,t1,2
8000034c:	18628063          	beq	t0,t1,800004cc <isr_is_MachineTimerInterrupt>
80000350:	00130313          	addi	t1,t1,1
80000354:	1a628a63          	beq	t0,t1,80000508 <isr_is_UserExternalInterrupt>
80000358:	00130313          	addi	t1,t1,1
8000035c:	1c628863          	beq	t0,t1,8000052c <isr_is_SupaervisorExternalInterrupt>
80000360:	00230313          	addi	t1,t1,2
80000364:	1e628663          	beq	t0,t1,80000550 <isr_is_MachineExternalInterrupt>
80000368:	20c0006f          	j	80000574 <isr_is_UnknownInterrupt>
8000036c:	00000013          	nop
80000370:	00c12083          	lw	ra,12(sp)
80000374:	01010113          	addi	sp,sp,16
80000378:	00008067          	ret

8000037c <isr_is_exception>:
8000037c:	ff010113          	addi	sp,sp,-16
80000380:	00112623          	sw	ra,12(sp)
80000384:	8001c7b7          	lui	a5,0x8001c
80000388:	c0878513          	addi	a0,a5,-1016 # 8001bc08 <__stack_top+0xcbb1bc08>
8000038c:	6ad000ef          	jal	ra,80001238 <printf>
80000390:	342022f3          	csrr	t0,mcause
80000394:	00000313          	li	t1,0
80000398:	22628e63          	beq	t0,t1,800005d4 <isr_is_InstructionAddressMisaligned>
8000039c:	00130313          	addi	t1,t1,1
800003a0:	24628c63          	beq	t0,t1,800005f8 <isr_is_InstructionAccessFault>
800003a4:	00130313          	addi	t1,t1,1
800003a8:	26628a63          	beq	t0,t1,8000061c <isr_is_IllegalInstruction>
800003ac:	00130313          	addi	t1,t1,1
800003b0:	28628863          	beq	t0,t1,80000640 <isr_is_Breakpoint>
800003b4:	00130313          	addi	t1,t1,1
800003b8:	2a628663          	beq	t0,t1,80000664 <isr_is_LoadAddressMisaligned>
800003bc:	00130313          	addi	t1,t1,1
800003c0:	2c628463          	beq	t0,t1,80000688 <isr_is_LoadAccessFault>
800003c4:	00130313          	addi	t1,t1,1
800003c8:	2e628263          	beq	t0,t1,800006ac <isr_is_StoreAmoAddressMisaligned>
800003cc:	00130313          	addi	t1,t1,1
800003d0:	30628063          	beq	t0,t1,800006d0 <isr_is_StoreAmoAccessFault>
800003d4:	00130313          	addi	t1,t1,1
800003d8:	30628e63          	beq	t0,t1,800006f4 <isr_is_EnvironmentCallFromUmode>
800003dc:	00130313          	addi	t1,t1,1
800003e0:	34628c63          	beq	t0,t1,80000738 <isr_is_EnvironmentCallFromSmode>
800003e4:	00230313          	addi	t1,t1,2
800003e8:	38628a63          	beq	t0,t1,8000077c <isr_is_EnvironmentCallFromMmode>
800003ec:	00130313          	addi	t1,t1,1
800003f0:	3a628863          	beq	t0,t1,800007a0 <isr_is_InstructionPageFault>
800003f4:	00130313          	addi	t1,t1,1
800003f8:	3c628663          	beq	t0,t1,800007c4 <isr_is_LoadPageFault>
800003fc:	00230313          	addi	t1,t1,2
80000400:	3e628463          	beq	t0,t1,800007e8 <isr_is_StoreAmoPageFault>
80000404:	4080006f          	j	8000080c <isr_is_UnknownException>
80000408:	00000013          	nop
8000040c:	00c12083          	lw	ra,12(sp)
80000410:	01010113          	addi	sp,sp,16
80000414:	00008067          	ret

80000418 <isr_is_UserSoftwareInterrupt>:
80000418:	ff010113          	addi	sp,sp,-16
8000041c:	00112623          	sw	ra,12(sp)
80000420:	8001c7b7          	lui	a5,0x8001c
80000424:	c1c78513          	addi	a0,a5,-996 # 8001bc1c <__stack_top+0xcbb1bc1c>
80000428:	611000ef          	jal	ra,80001238 <printf>
8000042c:	00000013          	nop
80000430:	00c12083          	lw	ra,12(sp)
80000434:	01010113          	addi	sp,sp,16
80000438:	00008067          	ret

8000043c <isr_is_SupervisorSoftwareInterrupt>:
8000043c:	ff010113          	addi	sp,sp,-16
80000440:	00112623          	sw	ra,12(sp)
80000444:	8001c7b7          	lui	a5,0x8001c
80000448:	c3878513          	addi	a0,a5,-968 # 8001bc38 <__stack_top+0xcbb1bc38>
8000044c:	5ed000ef          	jal	ra,80001238 <printf>
80000450:	00000013          	nop
80000454:	00c12083          	lw	ra,12(sp)
80000458:	01010113          	addi	sp,sp,16
8000045c:	00008067          	ret

80000460 <isr_is_MachineSoftwareInterrupt>:
80000460:	ff010113          	addi	sp,sp,-16
80000464:	00112623          	sw	ra,12(sp)
80000468:	8001c7b7          	lui	a5,0x8001c
8000046c:	c5878513          	addi	a0,a5,-936 # 8001bc58 <__stack_top+0xcbb1bc58>
80000470:	5c9000ef          	jal	ra,80001238 <printf>
80000474:	00000013          	nop
80000478:	00c12083          	lw	ra,12(sp)
8000047c:	01010113          	addi	sp,sp,16
80000480:	00008067          	ret

80000484 <isr_is_UserTimerInterrupt>:
80000484:	ff010113          	addi	sp,sp,-16
80000488:	00112623          	sw	ra,12(sp)
8000048c:	8001c7b7          	lui	a5,0x8001c
80000490:	c7478513          	addi	a0,a5,-908 # 8001bc74 <__stack_top+0xcbb1bc74>
80000494:	5a5000ef          	jal	ra,80001238 <printf>
80000498:	00000013          	nop
8000049c:	00c12083          	lw	ra,12(sp)
800004a0:	01010113          	addi	sp,sp,16
800004a4:	00008067          	ret

800004a8 <isr_is_SupervisorTimerInterrupt>:
800004a8:	ff010113          	addi	sp,sp,-16
800004ac:	00112623          	sw	ra,12(sp)
800004b0:	8001c7b7          	lui	a5,0x8001c
800004b4:	c8c78513          	addi	a0,a5,-884 # 8001bc8c <__stack_top+0xcbb1bc8c>
800004b8:	581000ef          	jal	ra,80001238 <printf>
800004bc:	00000013          	nop
800004c0:	00c12083          	lw	ra,12(sp)
800004c4:	01010113          	addi	sp,sp,16
800004c8:	00008067          	ret

800004cc <isr_is_MachineTimerInterrupt>:
800004cc:	ff010113          	addi	sp,sp,-16
800004d0:	00112623          	sw	ra,12(sp)
800004d4:	8001c7b7          	lui	a5,0x8001c
800004d8:	ca878513          	addi	a0,a5,-856 # 8001bca8 <__stack_top+0xcbb1bca8>
800004dc:	55d000ef          	jal	ra,80001238 <printf>
800004e0:	08000293          	li	t0,128
800004e4:	3042b073          	csrc	mie,t0
800004e8:	8001d7b7          	lui	a5,0x8001d
800004ec:	00100713          	li	a4,1
800004f0:	00e7a023          	sw	a4,0(a5) # 8001d000 <__stack_top+0xcbb1d000>
800004f4:	0a4000ef          	jal	ra,80000598 <my_mret>
800004f8:	00000013          	nop
800004fc:	00c12083          	lw	ra,12(sp)
80000500:	01010113          	addi	sp,sp,16
80000504:	00008067          	ret

80000508 <isr_is_UserExternalInterrupt>:
80000508:	ff010113          	addi	sp,sp,-16
8000050c:	00112623          	sw	ra,12(sp)
80000510:	8001c7b7          	lui	a5,0x8001c
80000514:	cc478513          	addi	a0,a5,-828 # 8001bcc4 <__stack_top+0xcbb1bcc4>
80000518:	521000ef          	jal	ra,80001238 <printf>
8000051c:	00000013          	nop
80000520:	00c12083          	lw	ra,12(sp)
80000524:	01010113          	addi	sp,sp,16
80000528:	00008067          	ret

8000052c <isr_is_SupaervisorExternalInterrupt>:
8000052c:	ff010113          	addi	sp,sp,-16
80000530:	00112623          	sw	ra,12(sp)
80000534:	8001c7b7          	lui	a5,0x8001c
80000538:	ce078513          	addi	a0,a5,-800 # 8001bce0 <__stack_top+0xcbb1bce0>
8000053c:	4fd000ef          	jal	ra,80001238 <printf>
80000540:	00000013          	nop
80000544:	00c12083          	lw	ra,12(sp)
80000548:	01010113          	addi	sp,sp,16
8000054c:	00008067          	ret

80000550 <isr_is_MachineExternalInterrupt>:
80000550:	ff010113          	addi	sp,sp,-16
80000554:	00112623          	sw	ra,12(sp)
80000558:	8001c7b7          	lui	a5,0x8001c
8000055c:	d0078513          	addi	a0,a5,-768 # 8001bd00 <__stack_top+0xcbb1bd00>
80000560:	4d9000ef          	jal	ra,80001238 <printf>
80000564:	00000013          	nop
80000568:	00c12083          	lw	ra,12(sp)
8000056c:	01010113          	addi	sp,sp,16
80000570:	00008067          	ret

80000574 <isr_is_UnknownInterrupt>:
80000574:	ff010113          	addi	sp,sp,-16
80000578:	00112623          	sw	ra,12(sp)
8000057c:	8001c7b7          	lui	a5,0x8001c
80000580:	d1c78513          	addi	a0,a5,-740 # 8001bd1c <__stack_top+0xcbb1bd1c>
80000584:	4b5000ef          	jal	ra,80001238 <printf>
80000588:	00000013          	nop
8000058c:	00c12083          	lw	ra,12(sp)
80000590:	01010113          	addi	sp,sp,16
80000594:	00008067          	ret

80000598 <my_mret>:
80000598:	ff010113          	addi	sp,sp,-16
8000059c:	00c12083          	lw	ra,12(sp)
800005a0:	01010113          	addi	sp,sp,16
800005a4:	00c12083          	lw	ra,12(sp)
800005a8:	01010113          	addi	sp,sp,16
800005ac:	00c12083          	lw	ra,12(sp)
800005b0:	01010113          	addi	sp,sp,16
800005b4:	000027b7          	lui	a5,0x2
800005b8:	80078793          	addi	a5,a5,-2048 # 1800 <__stack_size-0xe800>
800005bc:	3007a7f3          	csrrs	a5,mstatus,a5
800005c0:	00f12623          	sw	a5,12(sp)
800005c4:	30200073          	mret
800005c8:	00000013          	nop
800005cc:	01010113          	addi	sp,sp,16
800005d0:	00008067          	ret

800005d4 <isr_is_InstructionAddressMisaligned>:
800005d4:	ff010113          	addi	sp,sp,-16
800005d8:	00112623          	sw	ra,12(sp)
800005dc:	8001c7b7          	lui	a5,0x8001c
800005e0:	d3078513          	addi	a0,a5,-720 # 8001bd30 <__stack_top+0xcbb1bd30>
800005e4:	455000ef          	jal	ra,80001238 <printf>
800005e8:	00000013          	nop
800005ec:	00c12083          	lw	ra,12(sp)
800005f0:	01010113          	addi	sp,sp,16
800005f4:	00008067          	ret

800005f8 <isr_is_InstructionAccessFault>:
800005f8:	ff010113          	addi	sp,sp,-16
800005fc:	00112623          	sw	ra,12(sp)
80000600:	8001c7b7          	lui	a5,0x8001c
80000604:	d5078513          	addi	a0,a5,-688 # 8001bd50 <__stack_top+0xcbb1bd50>
80000608:	431000ef          	jal	ra,80001238 <printf>
8000060c:	00000013          	nop
80000610:	00c12083          	lw	ra,12(sp)
80000614:	01010113          	addi	sp,sp,16
80000618:	00008067          	ret

8000061c <isr_is_IllegalInstruction>:
8000061c:	ff010113          	addi	sp,sp,-16
80000620:	00112623          	sw	ra,12(sp)
80000624:	8001c7b7          	lui	a5,0x8001c
80000628:	d6c78513          	addi	a0,a5,-660 # 8001bd6c <__stack_top+0xcbb1bd6c>
8000062c:	40d000ef          	jal	ra,80001238 <printf>
80000630:	00000013          	nop
80000634:	00c12083          	lw	ra,12(sp)
80000638:	01010113          	addi	sp,sp,16
8000063c:	00008067          	ret

80000640 <isr_is_Breakpoint>:
80000640:	ff010113          	addi	sp,sp,-16
80000644:	00112623          	sw	ra,12(sp)
80000648:	8001c7b7          	lui	a5,0x8001c
8000064c:	d8478513          	addi	a0,a5,-636 # 8001bd84 <__stack_top+0xcbb1bd84>
80000650:	3e9000ef          	jal	ra,80001238 <printf>
80000654:	00000013          	nop
80000658:	00c12083          	lw	ra,12(sp)
8000065c:	01010113          	addi	sp,sp,16
80000660:	00008067          	ret

80000664 <isr_is_LoadAddressMisaligned>:
80000664:	ff010113          	addi	sp,sp,-16
80000668:	00112623          	sw	ra,12(sp)
8000066c:	8001c7b7          	lui	a5,0x8001c
80000670:	d9878513          	addi	a0,a5,-616 # 8001bd98 <__stack_top+0xcbb1bd98>
80000674:	3c5000ef          	jal	ra,80001238 <printf>
80000678:	00000013          	nop
8000067c:	00c12083          	lw	ra,12(sp)
80000680:	01010113          	addi	sp,sp,16
80000684:	00008067          	ret

80000688 <isr_is_LoadAccessFault>:
80000688:	ff010113          	addi	sp,sp,-16
8000068c:	00112623          	sw	ra,12(sp)
80000690:	8001c7b7          	lui	a5,0x8001c
80000694:	db478513          	addi	a0,a5,-588 # 8001bdb4 <__stack_top+0xcbb1bdb4>
80000698:	3a1000ef          	jal	ra,80001238 <printf>
8000069c:	00000013          	nop
800006a0:	00c12083          	lw	ra,12(sp)
800006a4:	01010113          	addi	sp,sp,16
800006a8:	00008067          	ret

800006ac <isr_is_StoreAmoAddressMisaligned>:
800006ac:	ff010113          	addi	sp,sp,-16
800006b0:	00112623          	sw	ra,12(sp)
800006b4:	8001c7b7          	lui	a5,0x8001c
800006b8:	dc878513          	addi	a0,a5,-568 # 8001bdc8 <__stack_top+0xcbb1bdc8>
800006bc:	37d000ef          	jal	ra,80001238 <printf>
800006c0:	00000013          	nop
800006c4:	00c12083          	lw	ra,12(sp)
800006c8:	01010113          	addi	sp,sp,16
800006cc:	00008067          	ret

800006d0 <isr_is_StoreAmoAccessFault>:
800006d0:	ff010113          	addi	sp,sp,-16
800006d4:	00112623          	sw	ra,12(sp)
800006d8:	8001c7b7          	lui	a5,0x8001c
800006dc:	de878513          	addi	a0,a5,-536 # 8001bde8 <__stack_top+0xcbb1bde8>
800006e0:	359000ef          	jal	ra,80001238 <printf>
800006e4:	00000013          	nop
800006e8:	00c12083          	lw	ra,12(sp)
800006ec:	01010113          	addi	sp,sp,16
800006f0:	00008067          	ret

800006f4 <isr_is_EnvironmentCallFromUmode>:
800006f4:	fe010113          	addi	sp,sp,-32
800006f8:	00112e23          	sw	ra,28(sp)
800006fc:	8001c7b7          	lui	a5,0x8001c
80000700:	e0078513          	addi	a0,a5,-512 # 8001be00 <__stack_top+0xcbb1be00>
80000704:	335000ef          	jal	ra,80001238 <printf>
80000708:	341027f3          	csrr	a5,mepc
8000070c:	00f12623          	sw	a5,12(sp)
80000710:	00c12783          	lw	a5,12(sp)
80000714:	00f12423          	sw	a5,8(sp)
80000718:	00812783          	lw	a5,8(sp)
8000071c:	00478793          	addi	a5,a5,4
80000720:	34179073          	csrw	mepc,a5
80000724:	e75ff0ef          	jal	ra,80000598 <my_mret>
80000728:	00000013          	nop
8000072c:	01c12083          	lw	ra,28(sp)
80000730:	02010113          	addi	sp,sp,32
80000734:	00008067          	ret

80000738 <isr_is_EnvironmentCallFromSmode>:
80000738:	fe010113          	addi	sp,sp,-32
8000073c:	00112e23          	sw	ra,28(sp)
80000740:	8001c7b7          	lui	a5,0x8001c
80000744:	e2078513          	addi	a0,a5,-480 # 8001be20 <__stack_top+0xcbb1be20>
80000748:	2f1000ef          	jal	ra,80001238 <printf>
8000074c:	341027f3          	csrr	a5,mepc
80000750:	00f12623          	sw	a5,12(sp)
80000754:	00c12783          	lw	a5,12(sp)
80000758:	00f12423          	sw	a5,8(sp)
8000075c:	00812783          	lw	a5,8(sp)
80000760:	00478793          	addi	a5,a5,4
80000764:	34179073          	csrw	mepc,a5
80000768:	e31ff0ef          	jal	ra,80000598 <my_mret>
8000076c:	00000013          	nop
80000770:	01c12083          	lw	ra,28(sp)
80000774:	02010113          	addi	sp,sp,32
80000778:	00008067          	ret

8000077c <isr_is_EnvironmentCallFromMmode>:
8000077c:	ff010113          	addi	sp,sp,-16
80000780:	00112623          	sw	ra,12(sp)
80000784:	8001c7b7          	lui	a5,0x8001c
80000788:	e4078513          	addi	a0,a5,-448 # 8001be40 <__stack_top+0xcbb1be40>
8000078c:	2ad000ef          	jal	ra,80001238 <printf>
80000790:	00000013          	nop
80000794:	00c12083          	lw	ra,12(sp)
80000798:	01010113          	addi	sp,sp,16
8000079c:	00008067          	ret

800007a0 <isr_is_InstructionPageFault>:
800007a0:	ff010113          	addi	sp,sp,-16
800007a4:	00112623          	sw	ra,12(sp)
800007a8:	8001c7b7          	lui	a5,0x8001c
800007ac:	e6078513          	addi	a0,a5,-416 # 8001be60 <__stack_top+0xcbb1be60>
800007b0:	289000ef          	jal	ra,80001238 <printf>
800007b4:	00000013          	nop
800007b8:	00c12083          	lw	ra,12(sp)
800007bc:	01010113          	addi	sp,sp,16
800007c0:	00008067          	ret

800007c4 <isr_is_LoadPageFault>:
800007c4:	ff010113          	addi	sp,sp,-16
800007c8:	00112623          	sw	ra,12(sp)
800007cc:	8001c7b7          	lui	a5,0x8001c
800007d0:	e7878513          	addi	a0,a5,-392 # 8001be78 <__stack_top+0xcbb1be78>
800007d4:	265000ef          	jal	ra,80001238 <printf>
800007d8:	00000013          	nop
800007dc:	00c12083          	lw	ra,12(sp)
800007e0:	01010113          	addi	sp,sp,16
800007e4:	00008067          	ret

800007e8 <isr_is_StoreAmoPageFault>:
800007e8:	ff010113          	addi	sp,sp,-16
800007ec:	00112623          	sw	ra,12(sp)
800007f0:	8001c7b7          	lui	a5,0x8001c
800007f4:	e8c78513          	addi	a0,a5,-372 # 8001be8c <__stack_top+0xcbb1be8c>
800007f8:	241000ef          	jal	ra,80001238 <printf>
800007fc:	00000013          	nop
80000800:	00c12083          	lw	ra,12(sp)
80000804:	01010113          	addi	sp,sp,16
80000808:	00008067          	ret

8000080c <isr_is_UnknownException>:
8000080c:	ff010113          	addi	sp,sp,-16
80000810:	00112623          	sw	ra,12(sp)
80000814:	8001c7b7          	lui	a5,0x8001c
80000818:	ea478513          	addi	a0,a5,-348 # 8001bea4 <__stack_top+0xcbb1bea4>
8000081c:	21d000ef          	jal	ra,80001238 <printf>
80000820:	00000013          	nop
80000824:	00c12083          	lw	ra,12(sp)
80000828:	01010113          	addi	sp,sp,16
8000082c:	00008067          	ret

80000830 <dummy_loop>:
80000830:	ff010113          	addi	sp,sp,-16
80000834:	00012623          	sw	zero,12(sp)
80000838:	0100006f          	j	80000848 <dummy_loop+0x18>
8000083c:	00c12783          	lw	a5,12(sp)
80000840:	00178793          	addi	a5,a5,1
80000844:	00f12623          	sw	a5,12(sp)
80000848:	00c12703          	lw	a4,12(sp)
8000084c:	3e700793          	li	a5,999
80000850:	fee7d6e3          	ble	a4,a5,8000083c <dummy_loop+0xc>
80000854:	00000013          	nop
80000858:	01010113          	addi	sp,sp,16
8000085c:	00008067          	ret

80000860 <HW_allocate>:
80000860:	fe010113          	addi	sp,sp,-32
80000864:	00112e23          	sw	ra,28(sp)
80000868:	00a12623          	sw	a0,12(sp)
8000086c:	8001c7b7          	lui	a5,0x8001c
80000870:	2607a783          	lw	a5,608(a5) # 8001c260 <__stack_top+0xcbb1c260>
80000874:	00c12703          	lw	a4,12(sp)
80000878:	00e7a023          	sw	a4,0(a5)
8000087c:	8001c7b7          	lui	a5,0x8001c
80000880:	2647a783          	lw	a5,612(a5) # 8001c264 <__stack_top+0xcbb1c264>
80000884:	0007a023          	sw	zero,0(a5)
80000888:	8001c7b7          	lui	a5,0x8001c
8000088c:	25c7a783          	lw	a5,604(a5) # 8001c25c <__stack_top+0xcbb1c25c>
80000890:	00100713          	li	a4,1
80000894:	00e7a023          	sw	a4,0(a5)
80000898:	00000013          	nop
8000089c:	8001c7b7          	lui	a5,0x8001c
800008a0:	2647a783          	lw	a5,612(a5) # 8001c264 <__stack_top+0xcbb1c264>
800008a4:	0007a783          	lw	a5,0(a5)
800008a8:	fe078ae3          	beqz	a5,8000089c <HW_allocate+0x3c>
800008ac:	8001c7b7          	lui	a5,0x8001c
800008b0:	2647a783          	lw	a5,612(a5) # 8001c264 <__stack_top+0xcbb1c264>
800008b4:	0007a703          	lw	a4,0(a5)
800008b8:	00400793          	li	a5,4
800008bc:	00f71c63          	bne	a4,a5,800008d4 <HW_allocate+0x74>
800008c0:	8001c7b7          	lui	a5,0x8001c
800008c4:	eb878513          	addi	a0,a5,-328 # 8001beb8 <__stack_top+0xcbb1beb8>
800008c8:	171000ef          	jal	ra,80001238 <printf>
800008cc:	fff00793          	li	a5,-1
800008d0:	01c0006f          	j	800008ec <HW_allocate+0x8c>
800008d4:	8001c7b7          	lui	a5,0x8001c
800008d8:	2647a783          	lw	a5,612(a5) # 8001c264 <__stack_top+0xcbb1c264>
800008dc:	0007a023          	sw	zero,0(a5)
800008e0:	8001c7b7          	lui	a5,0x8001c
800008e4:	2687a783          	lw	a5,616(a5) # 8001c268 <__stack_top+0xcbb1c268>
800008e8:	0007a783          	lw	a5,0(a5)
800008ec:	00078513          	mv	a0,a5
800008f0:	01c12083          	lw	ra,28(sp)
800008f4:	02010113          	addi	sp,sp,32
800008f8:	00008067          	ret

800008fc <HW_free>:
800008fc:	ff010113          	addi	sp,sp,-16
80000900:	00a12623          	sw	a0,12(sp)
80000904:	8001c7b7          	lui	a5,0x8001c
80000908:	2707a783          	lw	a5,624(a5) # 8001c270 <__stack_top+0xcbb1c270>
8000090c:	00c12703          	lw	a4,12(sp)
80000910:	00e7a023          	sw	a4,0(a5)
80000914:	8001c7b7          	lui	a5,0x8001c
80000918:	2747a783          	lw	a5,628(a5) # 8001c274 <__stack_top+0xcbb1c274>
8000091c:	0007a023          	sw	zero,0(a5)
80000920:	8001c7b7          	lui	a5,0x8001c
80000924:	26c7a783          	lw	a5,620(a5) # 8001c26c <__stack_top+0xcbb1c26c>
80000928:	00100713          	li	a4,1
8000092c:	00e7a023          	sw	a4,0(a5)
80000930:	00000013          	nop
80000934:	8001c7b7          	lui	a5,0x8001c
80000938:	2747a783          	lw	a5,628(a5) # 8001c274 <__stack_top+0xcbb1c274>
8000093c:	0007a703          	lw	a4,0(a5)
80000940:	00100793          	li	a5,1
80000944:	fef718e3          	bne	a4,a5,80000934 <HW_free+0x38>
80000948:	8001c7b7          	lui	a5,0x8001c
8000094c:	2747a783          	lw	a5,628(a5) # 8001c274 <__stack_top+0xcbb1c274>
80000950:	0007a023          	sw	zero,0(a5)
80000954:	00000013          	nop
80000958:	01010113          	addi	sp,sp,16
8000095c:	00008067          	ret

80000960 <HW_realloc>:
80000960:	fe010113          	addi	sp,sp,-32
80000964:	00112e23          	sw	ra,28(sp)
80000968:	00a12623          	sw	a0,12(sp)
8000096c:	00b12423          	sw	a1,8(sp)
80000970:	8001c7b7          	lui	a5,0x8001c
80000974:	2707a783          	lw	a5,624(a5) # 8001c270 <__stack_top+0xcbb1c270>
80000978:	00c12703          	lw	a4,12(sp)
8000097c:	00e7a023          	sw	a4,0(a5)
80000980:	8001c7b7          	lui	a5,0x8001c
80000984:	2607a783          	lw	a5,608(a5) # 8001c260 <__stack_top+0xcbb1c260>
80000988:	00812703          	lw	a4,8(sp)
8000098c:	00e7a023          	sw	a4,0(a5)
80000990:	8001c7b7          	lui	a5,0x8001c
80000994:	25c7a783          	lw	a5,604(a5) # 8001c25c <__stack_top+0xcbb1c25c>
80000998:	00200713          	li	a4,2
8000099c:	00e7a023          	sw	a4,0(a5)
800009a0:	8001c7b7          	lui	a5,0x8001c
800009a4:	2607a223          	sw	zero,612(a5) # 8001c264 <__stack_top+0xcbb1c264>
800009a8:	00000013          	nop
800009ac:	8001c7b7          	lui	a5,0x8001c
800009b0:	2647a783          	lw	a5,612(a5) # 8001c264 <__stack_top+0xcbb1c264>
800009b4:	0007a783          	lw	a5,0(a5)
800009b8:	fe078ae3          	beqz	a5,800009ac <HW_realloc+0x4c>
800009bc:	8001c7b7          	lui	a5,0x8001c
800009c0:	2647a783          	lw	a5,612(a5) # 8001c264 <__stack_top+0xcbb1c264>
800009c4:	0007a703          	lw	a4,0(a5)
800009c8:	00200793          	li	a5,2
800009cc:	02f71063          	bne	a4,a5,800009ec <HW_realloc+0x8c>
800009d0:	8001c7b7          	lui	a5,0x8001c
800009d4:	2647a783          	lw	a5,612(a5) # 8001c264 <__stack_top+0xcbb1c264>
800009d8:	0007a023          	sw	zero,0(a5)
800009dc:	8001c7b7          	lui	a5,0x8001c
800009e0:	2687a783          	lw	a5,616(a5) # 8001c268 <__stack_top+0xcbb1c268>
800009e4:	0007a783          	lw	a5,0(a5)
800009e8:	0380006f          	j	80000a20 <HW_realloc+0xc0>
800009ec:	8001c7b7          	lui	a5,0x8001c
800009f0:	2647a783          	lw	a5,612(a5) # 8001c264 <__stack_top+0xcbb1c264>
800009f4:	0007a703          	lw	a4,0(a5)
800009f8:	00400793          	li	a5,4
800009fc:	02f71263          	bne	a4,a5,80000a20 <HW_realloc+0xc0>
80000a00:	8001c7b7          	lui	a5,0x8001c
80000a04:	2647a783          	lw	a5,612(a5) # 8001c264 <__stack_top+0xcbb1c264>
80000a08:	0007a023          	sw	zero,0(a5)
80000a0c:	8001c7b7          	lui	a5,0x8001c
80000a10:	eb878513          	addi	a0,a5,-328 # 8001beb8 <__stack_top+0xcbb1beb8>
80000a14:	025000ef          	jal	ra,80001238 <printf>
80000a18:	fff00793          	li	a5,-1
80000a1c:	0040006f          	j	80000a20 <HW_realloc+0xc0>
80000a20:	00078513          	mv	a0,a5
80000a24:	01c12083          	lw	ra,28(sp)
80000a28:	02010113          	addi	sp,sp,32
80000a2c:	00008067          	ret

80000a30 <main>:
80000a30:	fd010113          	addi	sp,sp,-48
80000a34:	02112623          	sw	ra,44(sp)
80000a38:	02812423          	sw	s0,40(sp)
80000a3c:	fe000337          	lui	t1,0xfe000
80000a40:	00610133          	add	sp,sp,t1
80000a44:	fe0007b7          	lui	a5,0xfe000
80000a48:	02000437          	lui	s0,0x2000
80000a4c:	02040713          	addi	a4,s0,32 # 2000020 <__heap_size+0x20>
80000a50:	00270733          	add	a4,a4,sp
80000a54:	00f707b3          	add	a5,a4,a5
80000a58:	fea7a623          	sw	a0,-20(a5) # fdffffec <__stack_top+0x49afffec>
80000a5c:	fe0007b7          	lui	a5,0xfe000
80000a60:	02040713          	addi	a4,s0,32
80000a64:	00270733          	add	a4,a4,sp
80000a68:	00f707b3          	add	a5,a4,a5
80000a6c:	feb7a423          	sw	a1,-24(a5) # fdffffe8 <__stack_top+0x49afffe8>
80000a70:	fe0007b7          	lui	a5,0xfe000
80000a74:	ff478793          	addi	a5,a5,-12 # fdfffff4 <__stack_top+0x49affff4>
80000a78:	02040713          	addi	a4,s0,32
80000a7c:	00270733          	add	a4,a4,sp
80000a80:	00f707b3          	add	a5,a4,a5
80000a84:	00000613          	li	a2,0
80000a88:	020005b7          	lui	a1,0x2000
80000a8c:	00078513          	mv	a0,a5
80000a90:	370010ef          	jal	ra,80001e00 <memset>
80000a94:	8001c7b7          	lui	a5,0x8001c
80000a98:	2787a783          	lw	a5,632(a5) # 8001c278 <__stack_top+0xcbb1c278>
80000a9c:	fe000737          	lui	a4,0xfe000
80000aa0:	ff470713          	addi	a4,a4,-12 # fdfffff4 <__stack_top+0x49affff4>
80000aa4:	02040693          	addi	a3,s0,32
80000aa8:	002686b3          	add	a3,a3,sp
80000aac:	00e68733          	add	a4,a3,a4
80000ab0:	00e7a023          	sw	a4,0(a5)
80000ab4:	750010ef          	jal	ra,80002204 <clock>
80000ab8:	00050793          	mv	a5,a0
80000abc:	01840713          	addi	a4,s0,24
80000ac0:	00270733          	add	a4,a4,sp
80000ac4:	00f72023          	sw	a5,0(a4)
80000ac8:	01c40793          	addi	a5,s0,28
80000acc:	002787b3          	add	a5,a5,sp
80000ad0:	0007a023          	sw	zero,0(a5)
80000ad4:	0f80006f          	j	80000bcc <main+0x19c>
80000ad8:	8000a7b7          	lui	a5,0x8000a
80000adc:	020006b7          	lui	a3,0x2000
80000ae0:	01c68713          	addi	a4,a3,28 # 200001c <__heap_size+0x1c>
80000ae4:	00270733          	add	a4,a4,sp
80000ae8:	00072703          	lw	a4,0(a4)
80000aec:	00271713          	slli	a4,a4,0x2
80000af0:	00078793          	mv	a5,a5
80000af4:	00f707b3          	add	a5,a4,a5
80000af8:	0007a703          	lw	a4,0(a5) # 8000a000 <__stack_top+0xcbb0a000>
80000afc:	00100793          	li	a5,1
80000b00:	06f71663          	bne	a4,a5,80000b6c <main+0x13c>
80000b04:	800107b7          	lui	a5,0x80010
80000b08:	00068613          	mv	a2,a3
80000b0c:	01c68713          	addi	a4,a3,28
80000b10:	00270733          	add	a4,a4,sp
80000b14:	00072703          	lw	a4,0(a4)
80000b18:	00271713          	slli	a4,a4,0x2
80000b1c:	cd078793          	addi	a5,a5,-816 # 8000fcd0 <__stack_top+0xcbb0fcd0>
80000b20:	00f707b3          	add	a5,a4,a5
80000b24:	0007a683          	lw	a3,0(a5)
80000b28:	800167b7          	lui	a5,0x80016
80000b2c:	01c60713          	addi	a4,a2,28
80000b30:	00270733          	add	a4,a4,sp
80000b34:	00072703          	lw	a4,0(a4)
80000b38:	00271713          	slli	a4,a4,0x2
80000b3c:	9a078793          	addi	a5,a5,-1632 # 800159a0 <__stack_top+0xcbb159a0>
80000b40:	00f707b3          	add	a5,a4,a5
80000b44:	0007a403          	lw	s0,0(a5)
80000b48:	00068513          	mv	a0,a3
80000b4c:	d15ff0ef          	jal	ra,80000860 <HW_allocate>
80000b50:	00050693          	mv	a3,a0
80000b54:	8001b7b7          	lui	a5,0x8001b
80000b58:	00241713          	slli	a4,s0,0x2
80000b5c:	67078793          	addi	a5,a5,1648 # 8001b670 <__stack_top+0xcbb1b670>
80000b60:	00f707b3          	add	a5,a4,a5
80000b64:	00d7a023          	sw	a3,0(a5)
80000b68:	0440006f          	j	80000bac <main+0x17c>
80000b6c:	800167b7          	lui	a5,0x80016
80000b70:	02000737          	lui	a4,0x2000
80000b74:	01c70713          	addi	a4,a4,28 # 200001c <__heap_size+0x1c>
80000b78:	00270733          	add	a4,a4,sp
80000b7c:	00072703          	lw	a4,0(a4)
80000b80:	00271713          	slli	a4,a4,0x2
80000b84:	9a078793          	addi	a5,a5,-1632 # 800159a0 <__stack_top+0xcbb159a0>
80000b88:	00f707b3          	add	a5,a4,a5
80000b8c:	0007a703          	lw	a4,0(a5)
80000b90:	8001b7b7          	lui	a5,0x8001b
80000b94:	00271713          	slli	a4,a4,0x2
80000b98:	67078793          	addi	a5,a5,1648 # 8001b670 <__stack_top+0xcbb1b670>
80000b9c:	00f707b3          	add	a5,a4,a5
80000ba0:	0007a783          	lw	a5,0(a5)
80000ba4:	00078513          	mv	a0,a5
80000ba8:	d55ff0ef          	jal	ra,800008fc <HW_free>
80000bac:	02000737          	lui	a4,0x2000
80000bb0:	01c70793          	addi	a5,a4,28 # 200001c <__heap_size+0x1c>
80000bb4:	002787b3          	add	a5,a5,sp
80000bb8:	0007a783          	lw	a5,0(a5)
80000bbc:	00178793          	addi	a5,a5,1
80000bc0:	01c70713          	addi	a4,a4,28
80000bc4:	00270733          	add	a4,a4,sp
80000bc8:	00f72023          	sw	a5,0(a4)
80000bcc:	02000437          	lui	s0,0x2000
80000bd0:	01c40793          	addi	a5,s0,28 # 200001c <__heap_size+0x1c>
80000bd4:	002787b3          	add	a5,a5,sp
80000bd8:	0007a703          	lw	a4,0(a5)
80000bdc:	000017b7          	lui	a5,0x1
80000be0:	73378793          	addi	a5,a5,1843 # 1733 <__stack_size-0xe8cd>
80000be4:	eee7dae3          	ble	a4,a5,80000ad8 <main+0xa8>
80000be8:	61c010ef          	jal	ra,80002204 <clock>
80000bec:	00050793          	mv	a5,a0
80000bf0:	01440713          	addi	a4,s0,20
80000bf4:	00270733          	add	a4,a4,sp
80000bf8:	00f72023          	sw	a5,0(a4)
80000bfc:	01440793          	addi	a5,s0,20
80000c00:	002787b3          	add	a5,a5,sp
80000c04:	0007a703          	lw	a4,0(a5)
80000c08:	01840793          	addi	a5,s0,24
80000c0c:	002787b3          	add	a5,a5,sp
80000c10:	0007a783          	lw	a5,0(a5)
80000c14:	40f707b3          	sub	a5,a4,a5
80000c18:	00078593          	mv	a1,a5
80000c1c:	8001c7b7          	lui	a5,0x8001c
80000c20:	ecc78513          	addi	a0,a5,-308 # 8001becc <__stack_top+0xcbb1becc>
80000c24:	614000ef          	jal	ra,80001238 <printf>
80000c28:	8001c7b7          	lui	a5,0x8001c
80000c2c:	ee078593          	addi	a1,a5,-288 # 8001bee0 <__stack_top+0xcbb1bee0>
80000c30:	8001c7b7          	lui	a5,0x8001c
80000c34:	ef078513          	addi	a0,a5,-272 # 8001bef0 <__stack_top+0xcbb1bef0>
80000c38:	600000ef          	jal	ra,80001238 <printf>
80000c3c:	8001c7b7          	lui	a5,0x8001c
80000c40:	2807a783          	lw	a5,640(a5) # 8001c280 <__stack_top+0xcbb1c280>
80000c44:	0007a783          	lw	a5,0(a5)
80000c48:	00078593          	mv	a1,a5
80000c4c:	8001c7b7          	lui	a5,0x8001c
80000c50:	ef878513          	addi	a0,a5,-264 # 8001bef8 <__stack_top+0xcbb1bef8>
80000c54:	5e4000ef          	jal	ra,80001238 <printf>
80000c58:	8001c7b7          	lui	a5,0x8001c
80000c5c:	27c7a783          	lw	a5,636(a5) # 8001c27c <__stack_top+0xcbb1c27c>
80000c60:	0007a783          	lw	a5,0(a5)
80000c64:	00078593          	mv	a1,a5
80000c68:	8001c7b7          	lui	a5,0x8001c
80000c6c:	f1c78513          	addi	a0,a5,-228 # 8001bf1c <__stack_top+0xcbb1bf1c>
80000c70:	5c8000ef          	jal	ra,80001238 <printf>
80000c74:	00000793          	li	a5,0
80000c78:	00078513          	mv	a0,a5
80000c7c:	02000337          	lui	t1,0x2000
80000c80:	00610133          	add	sp,sp,t1
80000c84:	02c12083          	lw	ra,44(sp)
80000c88:	02812403          	lw	s0,40(sp)
80000c8c:	03010113          	addi	sp,sp,48
80000c90:	00008067          	ret

80000c94 <getchar>:
80000c94:	ff010113          	addi	sp,sp,-16
80000c98:	00112623          	sw	ra,12(sp)
80000c9c:	5fc010ef          	jal	ra,80002298 <inbyte>
80000ca0:	00050793          	mv	a5,a0
80000ca4:	00078513          	mv	a0,a5
80000ca8:	00c12083          	lw	ra,12(sp)
80000cac:	01010113          	addi	sp,sp,16
80000cb0:	00008067          	ret

80000cb4 <fgets>:
80000cb4:	fd010113          	addi	sp,sp,-48
80000cb8:	02112623          	sw	ra,44(sp)
80000cbc:	00a12623          	sw	a0,12(sp)
80000cc0:	00b12423          	sw	a1,8(sp)
80000cc4:	00c12223          	sw	a2,4(sp)
80000cc8:	00c12783          	lw	a5,12(sp)
80000ccc:	00f12e23          	sw	a5,28(sp)
80000cd0:	8001c7b7          	lui	a5,0x8001c
80000cd4:	2947a783          	lw	a5,660(a5) # 8001c294 <__stack_top+0xcbb1c294>
80000cd8:	00412703          	lw	a4,4(sp)
80000cdc:	06f70a63          	beq	a4,a5,80000d50 <fgets+0x9c>
80000ce0:	8001c7b7          	lui	a5,0x8001c
80000ce4:	2947a783          	lw	a5,660(a5) # 8001c294 <__stack_top+0xcbb1c294>
80000ce8:	00078593          	mv	a1,a5
80000cec:	8001c7b7          	lui	a5,0x8001c
80000cf0:	f4078513          	addi	a0,a5,-192 # 8001bf40 <__stack_top+0xcbb1bf40>
80000cf4:	0c0000ef          	jal	ra,80000db4 <fputs>
80000cf8:	00012e23          	sw	zero,28(sp)
80000cfc:	0740006f          	j	80000d70 <fgets+0xbc>
80000d00:	f95ff0ef          	jal	ra,80000c94 <getchar>
80000d04:	00050793          	mv	a5,a0
80000d08:	0ff7f713          	andi	a4,a5,255
80000d0c:	00c12783          	lw	a5,12(sp)
80000d10:	00e78023          	sb	a4,0(a5)
80000d14:	00c12783          	lw	a5,12(sp)
80000d18:	0007c703          	lbu	a4,0(a5)
80000d1c:	00a00793          	li	a5,10
80000d20:	04f70063          	beq	a4,a5,80000d60 <fgets+0xac>
80000d24:	00c12783          	lw	a5,12(sp)
80000d28:	0007c703          	lbu	a4,0(a5)
80000d2c:	00d00793          	li	a5,13
80000d30:	02f70863          	beq	a4,a5,80000d60 <fgets+0xac>
80000d34:	00c12783          	lw	a5,12(sp)
80000d38:	0007c783          	lbu	a5,0(a5)
80000d3c:	00078513          	mv	a0,a5
80000d40:	044000ef          	jal	ra,80000d84 <putchar>
80000d44:	00c12783          	lw	a5,12(sp)
80000d48:	00178793          	addi	a5,a5,1
80000d4c:	00f12623          	sw	a5,12(sp)
80000d50:	00812783          	lw	a5,8(sp)
80000d54:	fff78713          	addi	a4,a5,-1
80000d58:	00e12423          	sw	a4,8(sp)
80000d5c:	fa0792e3          	bnez	a5,80000d00 <fgets+0x4c>
80000d60:	00a00513          	li	a0,10
80000d64:	020000ef          	jal	ra,80000d84 <putchar>
80000d68:	00c12783          	lw	a5,12(sp)
80000d6c:	00078023          	sb	zero,0(a5)
80000d70:	01c12783          	lw	a5,28(sp)
80000d74:	00078513          	mv	a0,a5
80000d78:	02c12083          	lw	ra,44(sp)
80000d7c:	03010113          	addi	sp,sp,48
80000d80:	00008067          	ret

80000d84 <putchar>:
80000d84:	fe010113          	addi	sp,sp,-32
80000d88:	00112e23          	sw	ra,28(sp)
80000d8c:	00a12623          	sw	a0,12(sp)
80000d90:	00c12783          	lw	a5,12(sp)
80000d94:	0ff7f793          	andi	a5,a5,255
80000d98:	00078513          	mv	a0,a5
80000d9c:	528010ef          	jal	ra,800022c4 <outbyte>
80000da0:	00c12783          	lw	a5,12(sp)
80000da4:	00078513          	mv	a0,a5
80000da8:	01c12083          	lw	ra,28(sp)
80000dac:	02010113          	addi	sp,sp,32
80000db0:	00008067          	ret

80000db4 <fputs>:
80000db4:	fe010113          	addi	sp,sp,-32
80000db8:	00112e23          	sw	ra,28(sp)
80000dbc:	00a12623          	sw	a0,12(sp)
80000dc0:	00b12423          	sw	a1,8(sp)
80000dc4:	8001c7b7          	lui	a5,0x8001c
80000dc8:	2987a783          	lw	a5,664(a5) # 8001c298 <__stack_top+0xcbb1c298>
80000dcc:	00812703          	lw	a4,8(sp)
80000dd0:	02f70c63          	beq	a4,a5,80000e08 <fputs+0x54>
80000dd4:	8001c7b7          	lui	a5,0x8001c
80000dd8:	2947a783          	lw	a5,660(a5) # 8001c294 <__stack_top+0xcbb1c294>
80000ddc:	00078593          	mv	a1,a5
80000de0:	8001c7b7          	lui	a5,0x8001c
80000de4:	f6c78513          	addi	a0,a5,-148 # 8001bf6c <__stack_top+0xcbb1bf6c>
80000de8:	fcdff0ef          	jal	ra,80000db4 <fputs>
80000dec:	0280006f          	j	80000e14 <fputs+0x60>
80000df0:	00c12783          	lw	a5,12(sp)
80000df4:	00178713          	addi	a4,a5,1
80000df8:	00e12623          	sw	a4,12(sp)
80000dfc:	0007c783          	lbu	a5,0(a5)
80000e00:	00078513          	mv	a0,a5
80000e04:	f81ff0ef          	jal	ra,80000d84 <putchar>
80000e08:	00c12783          	lw	a5,12(sp)
80000e0c:	0007c783          	lbu	a5,0(a5)
80000e10:	fe0790e3          	bnez	a5,80000df0 <fputs+0x3c>
80000e14:	00a00513          	li	a0,10
80000e18:	f6dff0ef          	jal	ra,80000d84 <putchar>
80000e1c:	00050793          	mv	a5,a0
80000e20:	00078513          	mv	a0,a5
80000e24:	01c12083          	lw	ra,28(sp)
80000e28:	02010113          	addi	sp,sp,32
80000e2c:	00008067          	ret

80000e30 <putd>:
80000e30:	fd010113          	addi	sp,sp,-48
80000e34:	02112623          	sw	ra,44(sp)
80000e38:	00a12623          	sw	a0,12(sp)
80000e3c:	00b12423          	sw	a1,8(sp)
80000e40:	00c12223          	sw	a2,4(sp)
80000e44:	3b9ad7b7          	lui	a5,0x3b9ad
80000e48:	a0078793          	addi	a5,a5,-1536 # 3b9aca00 <__heap_size+0x399aca00>
80000e4c:	00f12e23          	sw	a5,28(sp)
80000e50:	00100793          	li	a5,1
80000e54:	00f12c23          	sw	a5,24(sp)
80000e58:	00c12783          	lw	a5,12(sp)
80000e5c:	00079863          	bnez	a5,80000e6c <putd+0x3c>
80000e60:	03000513          	li	a0,48
80000e64:	f21ff0ef          	jal	ra,80000d84 <putchar>
80000e68:	0a80006f          	j	80000f10 <putd+0xe0>
80000e6c:	00412783          	lw	a5,4(sp)
80000e70:	02079663          	bnez	a5,80000e9c <putd+0x6c>
80000e74:	00c12783          	lw	a5,12(sp)
80000e78:	0207d263          	bgez	a5,80000e9c <putd+0x6c>
80000e7c:	00c12783          	lw	a5,12(sp)
80000e80:	40f007b3          	neg	a5,a5
80000e84:	00f12623          	sw	a5,12(sp)
80000e88:	02d00513          	li	a0,45
80000e8c:	ef9ff0ef          	jal	ra,80000d84 <putchar>
80000e90:	00c0006f          	j	80000e9c <putd+0x6c>
80000e94:	03000513          	li	a0,48
80000e98:	eedff0ef          	jal	ra,80000d84 <putchar>
80000e9c:	00812783          	lw	a5,8(sp)
80000ea0:	fff78713          	addi	a4,a5,-1
80000ea4:	00e12423          	sw	a4,8(sp)
80000ea8:	fe0796e3          	bnez	a5,80000e94 <putd+0x64>
80000eac:	00c12703          	lw	a4,12(sp)
80000eb0:	01c12783          	lw	a5,28(sp)
80000eb4:	02f757b3          	divu	a5,a4,a5
80000eb8:	00f12a23          	sw	a5,20(sp)
80000ebc:	01412783          	lw	a5,20(sp)
80000ec0:	02078063          	beqz	a5,80000ee0 <putd+0xb0>
80000ec4:	00012c23          	sw	zero,24(sp)
80000ec8:	00c12703          	lw	a4,12(sp)
80000ecc:	01412683          	lw	a3,20(sp)
80000ed0:	01c12783          	lw	a5,28(sp)
80000ed4:	02f687b3          	mul	a5,a3,a5
80000ed8:	40f707b3          	sub	a5,a4,a5
80000edc:	00f12623          	sw	a5,12(sp)
80000ee0:	01c12703          	lw	a4,28(sp)
80000ee4:	00a00793          	li	a5,10
80000ee8:	02f757b3          	divu	a5,a4,a5
80000eec:	00f12e23          	sw	a5,28(sp)
80000ef0:	01812783          	lw	a5,24(sp)
80000ef4:	00079a63          	bnez	a5,80000f08 <putd+0xd8>
80000ef8:	01412783          	lw	a5,20(sp)
80000efc:	03078793          	addi	a5,a5,48
80000f00:	00078513          	mv	a0,a5
80000f04:	e81ff0ef          	jal	ra,80000d84 <putchar>
80000f08:	01c12783          	lw	a5,28(sp)
80000f0c:	fa0790e3          	bnez	a5,80000eac <putd+0x7c>
80000f10:	02c12083          	lw	ra,44(sp)
80000f14:	03010113          	addi	sp,sp,48
80000f18:	00008067          	ret

80000f1c <putx>:
80000f1c:	fc010113          	addi	sp,sp,-64
80000f20:	02112e23          	sw	ra,60(sp)
80000f24:	00a12623          	sw	a0,12(sp)
80000f28:	00b12423          	sw	a1,8(sp)
80000f2c:	00c12223          	sw	a2,4(sp)
80000f30:	8001c7b7          	lui	a5,0x8001c
80000f34:	f9878793          	addi	a5,a5,-104 # 8001bf98 <__stack_top+0xcbb1bf98>
80000f38:	00f12e23          	sw	a5,28(sp)
80000f3c:	8001c7b7          	lui	a5,0x8001c
80000f40:	fac78793          	addi	a5,a5,-84 # 8001bfac <__stack_top+0xcbb1bfac>
80000f44:	02f12023          	sw	a5,32(sp)
80000f48:	00100793          	li	a5,1
80000f4c:	02f12623          	sw	a5,44(sp)
80000f50:	00c0006f          	j	80000f5c <putx+0x40>
80000f54:	03000513          	li	a0,48
80000f58:	e2dff0ef          	jal	ra,80000d84 <putchar>
80000f5c:	00412783          	lw	a5,4(sp)
80000f60:	fff78713          	addi	a4,a5,-1
80000f64:	00e12223          	sw	a4,4(sp)
80000f68:	fe0796e3          	bnez	a5,80000f54 <putx+0x38>
80000f6c:	00812703          	lw	a4,8(sp)
80000f70:	41f75793          	srai	a5,a4,0x1f
80000f74:	01f7d793          	srli	a5,a5,0x1f
80000f78:	00f70733          	add	a4,a4,a5
80000f7c:	00177713          	andi	a4,a4,1
80000f80:	40f707b3          	sub	a5,a4,a5
80000f84:	00f12423          	sw	a5,8(sp)
80000f88:	00800793          	li	a5,8
80000f8c:	02f12423          	sw	a5,40(sp)
80000f90:	0940006f          	j	80001024 <putx+0x108>
80000f94:	02812783          	lw	a5,40(sp)
80000f98:	fff78793          	addi	a5,a5,-1
80000f9c:	00279793          	slli	a5,a5,0x2
80000fa0:	00c12703          	lw	a4,12(sp)
80000fa4:	00f757b3          	srl	a5,a4,a5
80000fa8:	02f12223          	sw	a5,36(sp)
80000fac:	02412783          	lw	a5,36(sp)
80000fb0:	02078c63          	beqz	a5,80000fe8 <putx+0xcc>
80000fb4:	02012623          	sw	zero,44(sp)
80000fb8:	00900713          	li	a4,9
80000fbc:	02812783          	lw	a5,40(sp)
80000fc0:	40f707b3          	sub	a5,a4,a5
80000fc4:	00279793          	slli	a5,a5,0x2
80000fc8:	00c12703          	lw	a4,12(sp)
80000fcc:	00f71733          	sll	a4,a4,a5
80000fd0:	00900693          	li	a3,9
80000fd4:	02812783          	lw	a5,40(sp)
80000fd8:	40f687b3          	sub	a5,a3,a5
80000fdc:	00279793          	slli	a5,a5,0x2
80000fe0:	00f757b3          	srl	a5,a4,a5
80000fe4:	00f12623          	sw	a5,12(sp)
80000fe8:	02c12783          	lw	a5,44(sp)
80000fec:	02079663          	bnez	a5,80001018 <putx+0xfc>
80000ff0:	00812783          	lw	a5,8(sp)
80000ff4:	00279793          	slli	a5,a5,0x2
80000ff8:	03010713          	addi	a4,sp,48
80000ffc:	00f707b3          	add	a5,a4,a5
80001000:	fec7a703          	lw	a4,-20(a5)
80001004:	02412783          	lw	a5,36(sp)
80001008:	00f707b3          	add	a5,a4,a5
8000100c:	0007c783          	lbu	a5,0(a5)
80001010:	00078513          	mv	a0,a5
80001014:	d71ff0ef          	jal	ra,80000d84 <putchar>
80001018:	02812783          	lw	a5,40(sp)
8000101c:	fff78793          	addi	a5,a5,-1
80001020:	02f12423          	sw	a5,40(sp)
80001024:	02812783          	lw	a5,40(sp)
80001028:	f6f046e3          	bgtz	a5,80000f94 <putx+0x78>
8000102c:	00000013          	nop
80001030:	03c12083          	lw	ra,60(sp)
80001034:	04010113          	addi	sp,sp,64
80001038:	00008067          	ret

8000103c <putf>:
8000103c:	fc010113          	addi	sp,sp,-64
80001040:	02112e23          	sw	ra,60(sp)
80001044:	02812c23          	sw	s0,56(sp)
80001048:	02912a23          	sw	s1,52(sp)
8000104c:	00a12423          	sw	a0,8(sp)
80001050:	00b12623          	sw	a1,12(sp)
80001054:	00c12223          	sw	a2,4(sp)
80001058:	00812783          	lw	a5,8(sp)
8000105c:	00c12803          	lw	a6,12(sp)
80001060:	02f12423          	sw	a5,40(sp)
80001064:	03012623          	sw	a6,44(sp)
80001068:	00100793          	li	a5,1
8000106c:	02f12023          	sw	a5,32(sp)
80001070:	00000613          	li	a2,0
80001074:	00000693          	li	a3,0
80001078:	02812503          	lw	a0,40(sp)
8000107c:	02c12583          	lw	a1,44(sp)
80001080:	6f9010ef          	jal	ra,80002f78 <__ledf2>
80001084:	00050793          	mv	a5,a0
80001088:	0207d263          	bgez	a5,800010ac <putf+0x70>
8000108c:	02812783          	lw	a5,40(sp)
80001090:	02f12423          	sw	a5,40(sp)
80001094:	02c12703          	lw	a4,44(sp)
80001098:	800007b7          	lui	a5,0x80000
8000109c:	00f747b3          	xor	a5,a4,a5
800010a0:	02f12623          	sw	a5,44(sp)
800010a4:	02d00513          	li	a0,45
800010a8:	cddff0ef          	jal	ra,80000d84 <putchar>
800010ac:	02812503          	lw	a0,40(sp)
800010b0:	02c12583          	lw	a1,44(sp)
800010b4:	531020ef          	jal	ra,80003de4 <__fixdfsi>
800010b8:	00050793          	mv	a5,a0
800010bc:	00f12e23          	sw	a5,28(sp)
800010c0:	02012223          	sw	zero,36(sp)
800010c4:	0280006f          	j	800010ec <putf+0xb0>
800010c8:	02012703          	lw	a4,32(sp)
800010cc:	00070793          	mv	a5,a4
800010d0:	00279793          	slli	a5,a5,0x2
800010d4:	00e787b3          	add	a5,a5,a4
800010d8:	00179793          	slli	a5,a5,0x1
800010dc:	02f12023          	sw	a5,32(sp)
800010e0:	02412783          	lw	a5,36(sp)
800010e4:	00178793          	addi	a5,a5,1 # 80000001 <__stack_top+0xcbb00001>
800010e8:	02f12223          	sw	a5,36(sp)
800010ec:	02412703          	lw	a4,36(sp)
800010f0:	00412783          	lw	a5,4(sp)
800010f4:	fcf74ae3          	blt	a4,a5,800010c8 <putf+0x8c>
800010f8:	01c12503          	lw	a0,28(sp)
800010fc:	569020ef          	jal	ra,80003e64 <__floatsidf>
80001100:	00050793          	mv	a5,a0
80001104:	00058813          	mv	a6,a1
80001108:	00078613          	mv	a2,a5
8000110c:	00080693          	mv	a3,a6
80001110:	02812503          	lw	a0,40(sp)
80001114:	02c12583          	lw	a1,44(sp)
80001118:	508020ef          	jal	ra,80003620 <__subdf3>
8000111c:	00050793          	mv	a5,a0
80001120:	00058813          	mv	a6,a1
80001124:	00078413          	mv	s0,a5
80001128:	00080493          	mv	s1,a6
8000112c:	02012503          	lw	a0,32(sp)
80001130:	535020ef          	jal	ra,80003e64 <__floatsidf>
80001134:	00050793          	mv	a5,a0
80001138:	00058813          	mv	a6,a1
8000113c:	00078613          	mv	a2,a5
80001140:	00080693          	mv	a3,a6
80001144:	00040513          	mv	a0,s0
80001148:	00048593          	mv	a1,s1
8000114c:	715010ef          	jal	ra,80003060 <__muldf3>
80001150:	00050793          	mv	a5,a0
80001154:	00058813          	mv	a6,a1
80001158:	00078513          	mv	a0,a5
8000115c:	00080593          	mv	a1,a6
80001160:	8001c7b7          	lui	a5,0x8001c
80001164:	0487a603          	lw	a2,72(a5) # 8001c048 <__stack_top+0xcbb1c048>
80001168:	04c7a683          	lw	a3,76(a5)
8000116c:	64c010ef          	jal	ra,800027b8 <__adddf3>
80001170:	00050793          	mv	a5,a0
80001174:	00058813          	mv	a6,a1
80001178:	00078513          	mv	a0,a5
8000117c:	00080593          	mv	a1,a6
80001180:	465020ef          	jal	ra,80003de4 <__fixdfsi>
80001184:	00050793          	mv	a5,a0
80001188:	00f12c23          	sw	a5,24(sp)
8000118c:	00412783          	lw	a5,4(sp)
80001190:	02f12223          	sw	a5,36(sp)
80001194:	0300006f          	j	800011c4 <putf+0x188>
80001198:	01812703          	lw	a4,24(sp)
8000119c:	02012783          	lw	a5,32(sp)
800011a0:	02f747b3          	div	a5,a4,a5
800011a4:	02079663          	bnez	a5,800011d0 <putf+0x194>
800011a8:	02012703          	lw	a4,32(sp)
800011ac:	00a00793          	li	a5,10
800011b0:	02f747b3          	div	a5,a4,a5
800011b4:	02f12023          	sw	a5,32(sp)
800011b8:	02412783          	lw	a5,36(sp)
800011bc:	fff78793          	addi	a5,a5,-1
800011c0:	02f12223          	sw	a5,36(sp)
800011c4:	02412783          	lw	a5,36(sp)
800011c8:	fcf048e3          	bgtz	a5,80001198 <putf+0x15c>
800011cc:	0080006f          	j	800011d4 <putf+0x198>
800011d0:	00000013          	nop
800011d4:	01c12783          	lw	a5,28(sp)
800011d8:	00078c63          	beqz	a5,800011f0 <putf+0x1b4>
800011dc:	00100613          	li	a2,1
800011e0:	00000593          	li	a1,0
800011e4:	01c12503          	lw	a0,28(sp)
800011e8:	c49ff0ef          	jal	ra,80000e30 <putd>
800011ec:	00c0006f          	j	800011f8 <putf+0x1bc>
800011f0:	03000513          	li	a0,48
800011f4:	b91ff0ef          	jal	ra,80000d84 <putchar>
800011f8:	02e00513          	li	a0,46
800011fc:	b89ff0ef          	jal	ra,80000d84 <putchar>
80001200:	00412703          	lw	a4,4(sp)
80001204:	02412783          	lw	a5,36(sp)
80001208:	40f707b3          	sub	a5,a4,a5
8000120c:	fff78793          	addi	a5,a5,-1
80001210:	00100613          	li	a2,1
80001214:	00078593          	mv	a1,a5
80001218:	01812503          	lw	a0,24(sp)
8000121c:	c15ff0ef          	jal	ra,80000e30 <putd>
80001220:	00000013          	nop
80001224:	03c12083          	lw	ra,60(sp)
80001228:	03812403          	lw	s0,56(sp)
8000122c:	03412483          	lw	s1,52(sp)
80001230:	04010113          	addi	sp,sp,64
80001234:	00008067          	ret

80001238 <printf>:
80001238:	fb010113          	addi	sp,sp,-80
8000123c:	02112623          	sw	ra,44(sp)
80001240:	00a12623          	sw	a0,12(sp)
80001244:	02b12a23          	sw	a1,52(sp)
80001248:	02c12c23          	sw	a2,56(sp)
8000124c:	02d12e23          	sw	a3,60(sp)
80001250:	04e12023          	sw	a4,64(sp)
80001254:	04f12223          	sw	a5,68(sp)
80001258:	05012423          	sw	a6,72(sp)
8000125c:	05112623          	sw	a7,76(sp)
80001260:	00600793          	li	a5,6
80001264:	00f12c23          	sw	a5,24(sp)
80001268:	00012a23          	sw	zero,20(sp)
8000126c:	05010793          	addi	a5,sp,80
80001270:	fe478793          	addi	a5,a5,-28
80001274:	00f12823          	sw	a5,16(sp)
80001278:	2380006f          	j	800014b0 <printf+0x278>
8000127c:	00c12783          	lw	a5,12(sp)
80001280:	0007c703          	lbu	a4,0(a5)
80001284:	02500793          	li	a5,37
80001288:	20f71663          	bne	a4,a5,80001494 <printf+0x25c>
8000128c:	00c12783          	lw	a5,12(sp)
80001290:	00178793          	addi	a5,a5,1
80001294:	00f12623          	sw	a5,12(sp)
80001298:	0100006f          	j	800012a8 <printf+0x70>
8000129c:	00c12783          	lw	a5,12(sp)
800012a0:	00178793          	addi	a5,a5,1
800012a4:	00f12623          	sw	a5,12(sp)
800012a8:	00c12783          	lw	a5,12(sp)
800012ac:	0007c703          	lbu	a4,0(a5)
800012b0:	02f00793          	li	a5,47
800012b4:	00e7fa63          	bleu	a4,a5,800012c8 <printf+0x90>
800012b8:	00c12783          	lw	a5,12(sp)
800012bc:	0007c703          	lbu	a4,0(a5)
800012c0:	03900793          	li	a5,57
800012c4:	fce7fce3          	bleu	a4,a5,8000129c <printf+0x64>
800012c8:	00c12783          	lw	a5,12(sp)
800012cc:	0007c703          	lbu	a4,0(a5)
800012d0:	07500793          	li	a5,117
800012d4:	00f71c63          	bne	a4,a5,800012ec <printf+0xb4>
800012d8:	00100793          	li	a5,1
800012dc:	00f12a23          	sw	a5,20(sp)
800012e0:	00c12783          	lw	a5,12(sp)
800012e4:	00178793          	addi	a5,a5,1
800012e8:	00f12623          	sw	a5,12(sp)
800012ec:	00c12783          	lw	a5,12(sp)
800012f0:	0007c703          	lbu	a4,0(a5)
800012f4:	06c00793          	li	a5,108
800012f8:	00f71863          	bne	a4,a5,80001308 <printf+0xd0>
800012fc:	00c12783          	lw	a5,12(sp)
80001300:	00178793          	addi	a5,a5,1
80001304:	00f12623          	sw	a5,12(sp)
80001308:	00c12783          	lw	a5,12(sp)
8000130c:	0007c703          	lbu	a4,0(a5)
80001310:	02e00793          	li	a5,46
80001314:	06f71263          	bne	a4,a5,80001378 <printf+0x140>
80001318:	00c12783          	lw	a5,12(sp)
8000131c:	00178793          	addi	a5,a5,1
80001320:	00f12623          	sw	a5,12(sp)
80001324:	00c12783          	lw	a5,12(sp)
80001328:	0007c783          	lbu	a5,0(a5)
8000132c:	fd078713          	addi	a4,a5,-48
80001330:	00a00793          	li	a5,10
80001334:	02f767b3          	rem	a5,a4,a5
80001338:	00f12c23          	sw	a5,24(sp)
8000133c:	00c12783          	lw	a5,12(sp)
80001340:	00178793          	addi	a5,a5,1
80001344:	00f12623          	sw	a5,12(sp)
80001348:	0100006f          	j	80001358 <printf+0x120>
8000134c:	00c12783          	lw	a5,12(sp)
80001350:	00178793          	addi	a5,a5,1
80001354:	00f12623          	sw	a5,12(sp)
80001358:	00c12783          	lw	a5,12(sp)
8000135c:	0007c703          	lbu	a4,0(a5)
80001360:	02f00793          	li	a5,47
80001364:	00e7fa63          	bleu	a4,a5,80001378 <printf+0x140>
80001368:	00c12783          	lw	a5,12(sp)
8000136c:	0007c703          	lbu	a4,0(a5)
80001370:	03900793          	li	a5,57
80001374:	fce7fce3          	bleu	a4,a5,8000134c <printf+0x114>
80001378:	00c12783          	lw	a5,12(sp)
8000137c:	0007c783          	lbu	a5,0(a5)
80001380:	fa878793          	addi	a5,a5,-88
80001384:	02000713          	li	a4,32
80001388:	0ef76c63          	bltu	a4,a5,80001480 <printf+0x248>
8000138c:	00279713          	slli	a4,a5,0x2
80001390:	8001c7b7          	lui	a5,0x8001c
80001394:	fc078793          	addi	a5,a5,-64 # 8001bfc0 <__stack_top+0xcbb1bfc0>
80001398:	00f707b3          	add	a5,a4,a5
8000139c:	0007a783          	lw	a5,0(a5)
800013a0:	00078067          	jr	a5
800013a4:	01012783          	lw	a5,16(sp)
800013a8:	00478713          	addi	a4,a5,4
800013ac:	00e12823          	sw	a4,16(sp)
800013b0:	0007a783          	lw	a5,0(a5)
800013b4:	00000613          	li	a2,0
800013b8:	00000593          	li	a1,0
800013bc:	00078513          	mv	a0,a5
800013c0:	b5dff0ef          	jal	ra,80000f1c <putx>
800013c4:	0e00006f          	j	800014a4 <printf+0x26c>
800013c8:	01012783          	lw	a5,16(sp)
800013cc:	00478713          	addi	a4,a5,4
800013d0:	00e12823          	sw	a4,16(sp)
800013d4:	0007a783          	lw	a5,0(a5)
800013d8:	00000613          	li	a2,0
800013dc:	00100593          	li	a1,1
800013e0:	00078513          	mv	a0,a5
800013e4:	b39ff0ef          	jal	ra,80000f1c <putx>
800013e8:	0bc0006f          	j	800014a4 <printf+0x26c>
800013ec:	01012783          	lw	a5,16(sp)
800013f0:	00478713          	addi	a4,a5,4
800013f4:	00e12823          	sw	a4,16(sp)
800013f8:	0007a783          	lw	a5,0(a5)
800013fc:	01412603          	lw	a2,20(sp)
80001400:	00000593          	li	a1,0
80001404:	00078513          	mv	a0,a5
80001408:	a29ff0ef          	jal	ra,80000e30 <putd>
8000140c:	0980006f          	j	800014a4 <printf+0x26c>
80001410:	01012783          	lw	a5,16(sp)
80001414:	00778793          	addi	a5,a5,7
80001418:	ff87f793          	andi	a5,a5,-8
8000141c:	00878713          	addi	a4,a5,8
80001420:	00e12823          	sw	a4,16(sp)
80001424:	0047a803          	lw	a6,4(a5)
80001428:	0007a783          	lw	a5,0(a5)
8000142c:	01812603          	lw	a2,24(sp)
80001430:	00078513          	mv	a0,a5
80001434:	00080593          	mv	a1,a6
80001438:	c05ff0ef          	jal	ra,8000103c <putf>
8000143c:	0680006f          	j	800014a4 <printf+0x26c>
80001440:	01012783          	lw	a5,16(sp)
80001444:	00478713          	addi	a4,a5,4
80001448:	00e12823          	sw	a4,16(sp)
8000144c:	0007a783          	lw	a5,0(a5)
80001450:	00f12e23          	sw	a5,28(sp)
80001454:	01c0006f          	j	80001470 <printf+0x238>
80001458:	01c12783          	lw	a5,28(sp)
8000145c:	00178713          	addi	a4,a5,1
80001460:	00e12e23          	sw	a4,28(sp)
80001464:	0007c783          	lbu	a5,0(a5)
80001468:	00078513          	mv	a0,a5
8000146c:	919ff0ef          	jal	ra,80000d84 <putchar>
80001470:	01c12783          	lw	a5,28(sp)
80001474:	0007c783          	lbu	a5,0(a5)
80001478:	fe0790e3          	bnez	a5,80001458 <printf+0x220>
8000147c:	0280006f          	j	800014a4 <printf+0x26c>
80001480:	00c12783          	lw	a5,12(sp)
80001484:	0007c783          	lbu	a5,0(a5)
80001488:	00078513          	mv	a0,a5
8000148c:	8f9ff0ef          	jal	ra,80000d84 <putchar>
80001490:	0140006f          	j	800014a4 <printf+0x26c>
80001494:	00c12783          	lw	a5,12(sp)
80001498:	0007c783          	lbu	a5,0(a5)
8000149c:	00078513          	mv	a0,a5
800014a0:	8e5ff0ef          	jal	ra,80000d84 <putchar>
800014a4:	00c12783          	lw	a5,12(sp)
800014a8:	00178793          	addi	a5,a5,1
800014ac:	00f12623          	sw	a5,12(sp)
800014b0:	00c12783          	lw	a5,12(sp)
800014b4:	0007c783          	lbu	a5,0(a5)
800014b8:	dc0792e3          	bnez	a5,8000127c <printf+0x44>
800014bc:	00000793          	li	a5,0
800014c0:	00078513          	mv	a0,a5
800014c4:	02c12083          	lw	ra,44(sp)
800014c8:	05010113          	addi	sp,sp,80
800014cc:	00008067          	ret

800014d0 <malloc>:
800014d0:	fe010113          	addi	sp,sp,-32
800014d4:	00112e23          	sw	ra,28(sp)
800014d8:	00a12623          	sw	a0,12(sp)
800014dc:	00c12503          	lw	a0,12(sp)
800014e0:	2b8000ef          	jal	ra,80001798 <pvPortMalloc>
800014e4:	00050793          	mv	a5,a0
800014e8:	00078513          	mv	a0,a5
800014ec:	01c12083          	lw	ra,28(sp)
800014f0:	02010113          	addi	sp,sp,32
800014f4:	00008067          	ret

800014f8 <free>:
800014f8:	fe010113          	addi	sp,sp,-32
800014fc:	00112e23          	sw	ra,28(sp)
80001500:	00a12623          	sw	a0,12(sp)
80001504:	00c12503          	lw	a0,12(sp)
80001508:	464000ef          	jal	ra,8000196c <vPortFree>
8000150c:	00000013          	nop
80001510:	01c12083          	lw	ra,28(sp)
80001514:	02010113          	addi	sp,sp,32
80001518:	00008067          	ret

8000151c <calloc>:
8000151c:	fd010113          	addi	sp,sp,-48
80001520:	02112623          	sw	ra,44(sp)
80001524:	00a12623          	sw	a0,12(sp)
80001528:	00b12423          	sw	a1,8(sp)
8000152c:	00c12703          	lw	a4,12(sp)
80001530:	00812783          	lw	a5,8(sp)
80001534:	02f707b3          	mul	a5,a4,a5
80001538:	00078513          	mv	a0,a5
8000153c:	f95ff0ef          	jal	ra,800014d0 <malloc>
80001540:	00a12e23          	sw	a0,28(sp)
80001544:	00c12703          	lw	a4,12(sp)
80001548:	00812783          	lw	a5,8(sp)
8000154c:	02f707b3          	mul	a5,a4,a5
80001550:	00078613          	mv	a2,a5
80001554:	00000593          	li	a1,0
80001558:	01c12503          	lw	a0,28(sp)
8000155c:	0a5000ef          	jal	ra,80001e00 <memset>
80001560:	01c12783          	lw	a5,28(sp)
80001564:	00078513          	mv	a0,a5
80001568:	02c12083          	lw	ra,44(sp)
8000156c:	03010113          	addi	sp,sp,48
80001570:	00008067          	ret

80001574 <atoi>:
80001574:	fe010113          	addi	sp,sp,-32
80001578:	00a12623          	sw	a0,12(sp)
8000157c:	0100006f          	j	8000158c <atoi+0x18>
80001580:	00c12783          	lw	a5,12(sp)
80001584:	00178793          	addi	a5,a5,1
80001588:	00f12623          	sw	a5,12(sp)
8000158c:	00c12783          	lw	a5,12(sp)
80001590:	0007c703          	lbu	a4,0(a5)
80001594:	02000793          	li	a5,32
80001598:	fef704e3          	beq	a4,a5,80001580 <atoi+0xc>
8000159c:	00c12783          	lw	a5,12(sp)
800015a0:	0007c703          	lbu	a4,0(a5)
800015a4:	00900793          	li	a5,9
800015a8:	fcf70ce3          	beq	a4,a5,80001580 <atoi+0xc>
800015ac:	00c12783          	lw	a5,12(sp)
800015b0:	0007c703          	lbu	a4,0(a5)
800015b4:	02d00793          	li	a5,45
800015b8:	00f71e63          	bne	a4,a5,800015d4 <atoi+0x60>
800015bc:	fff00793          	li	a5,-1
800015c0:	00f12c23          	sw	a5,24(sp)
800015c4:	00c12783          	lw	a5,12(sp)
800015c8:	00178793          	addi	a5,a5,1
800015cc:	00f12623          	sw	a5,12(sp)
800015d0:	00c0006f          	j	800015dc <atoi+0x68>
800015d4:	00100793          	li	a5,1
800015d8:	00f12c23          	sw	a5,24(sp)
800015dc:	00c12783          	lw	a5,12(sp)
800015e0:	0007c703          	lbu	a4,0(a5)
800015e4:	02f00793          	li	a5,47
800015e8:	02e7fa63          	bleu	a4,a5,8000161c <atoi+0xa8>
800015ec:	00c12783          	lw	a5,12(sp)
800015f0:	0007c703          	lbu	a4,0(a5)
800015f4:	03900793          	li	a5,57
800015f8:	02e7e263          	bltu	a5,a4,8000161c <atoi+0xa8>
800015fc:	00c12783          	lw	a5,12(sp)
80001600:	0007c783          	lbu	a5,0(a5)
80001604:	fd078793          	addi	a5,a5,-48
80001608:	00f12e23          	sw	a5,28(sp)
8000160c:	00c12783          	lw	a5,12(sp)
80001610:	00178793          	addi	a5,a5,1
80001614:	00f12623          	sw	a5,12(sp)
80001618:	0700006f          	j	80001688 <atoi+0x114>
8000161c:	00000793          	li	a5,0
80001620:	0800006f          	j	800016a0 <atoi+0x12c>
80001624:	00c12783          	lw	a5,12(sp)
80001628:	0007c703          	lbu	a4,0(a5)
8000162c:	02f00793          	li	a5,47
80001630:	04e7f863          	bleu	a4,a5,80001680 <atoi+0x10c>
80001634:	00c12783          	lw	a5,12(sp)
80001638:	0007c703          	lbu	a4,0(a5)
8000163c:	03900793          	li	a5,57
80001640:	04e7e063          	bltu	a5,a4,80001680 <atoi+0x10c>
80001644:	01c12703          	lw	a4,28(sp)
80001648:	00070793          	mv	a5,a4
8000164c:	00279793          	slli	a5,a5,0x2
80001650:	00e787b3          	add	a5,a5,a4
80001654:	00179793          	slli	a5,a5,0x1
80001658:	00078713          	mv	a4,a5
8000165c:	00c12783          	lw	a5,12(sp)
80001660:	0007c783          	lbu	a5,0(a5)
80001664:	fd078793          	addi	a5,a5,-48
80001668:	00f707b3          	add	a5,a4,a5
8000166c:	00f12e23          	sw	a5,28(sp)
80001670:	00c12783          	lw	a5,12(sp)
80001674:	00178793          	addi	a5,a5,1
80001678:	00f12623          	sw	a5,12(sp)
8000167c:	00c0006f          	j	80001688 <atoi+0x114>
80001680:	00000793          	li	a5,0
80001684:	01c0006f          	j	800016a0 <atoi+0x12c>
80001688:	00c12783          	lw	a5,12(sp)
8000168c:	0007c783          	lbu	a5,0(a5)
80001690:	f8079ae3          	bnez	a5,80001624 <atoi+0xb0>
80001694:	01c12703          	lw	a4,28(sp)
80001698:	01812783          	lw	a5,24(sp)
8000169c:	02f707b3          	mul	a5,a4,a5
800016a0:	00078513          	mv	a0,a5
800016a4:	02010113          	addi	sp,sp,32
800016a8:	00008067          	ret

800016ac <abs>:
800016ac:	fe010113          	addi	sp,sp,-32
800016b0:	00a12623          	sw	a0,12(sp)
800016b4:	00c12783          	lw	a5,12(sp)
800016b8:	0007c863          	bltz	a5,800016c8 <abs+0x1c>
800016bc:	00c12783          	lw	a5,12(sp)
800016c0:	00f12e23          	sw	a5,28(sp)
800016c4:	0100006f          	j	800016d4 <abs+0x28>
800016c8:	00c12783          	lw	a5,12(sp)
800016cc:	40f007b3          	neg	a5,a5
800016d0:	00f12e23          	sw	a5,28(sp)
800016d4:	01c12783          	lw	a5,28(sp)
800016d8:	00078513          	mv	a0,a5
800016dc:	02010113          	addi	sp,sp,32
800016e0:	00008067          	ret

800016e4 <exit>:
800016e4:	fe010113          	addi	sp,sp,-32
800016e8:	00112e23          	sw	ra,28(sp)
800016ec:	00a12623          	sw	a0,12(sp)
800016f0:	00c12583          	lw	a1,12(sp)
800016f4:	8001c7b7          	lui	a5,0x8001c
800016f8:	05078513          	addi	a0,a5,80 # 8001c050 <__stack_top+0xcbb1c050>
800016fc:	b3dff0ef          	jal	ra,80001238 <printf>
80001700:	8001c7b7          	lui	a5,0x8001c
80001704:	07878513          	addi	a0,a5,120 # 8001c078 <__stack_top+0xcbb1c078>
80001708:	b31ff0ef          	jal	ra,80001238 <printf>
8000170c:	8001c7b7          	lui	a5,0x8001c
80001710:	0b878513          	addi	a0,a5,184 # 8001c0b8 <__stack_top+0xcbb1c0b8>
80001714:	b25ff0ef          	jal	ra,80001238 <printf>
80001718:	8001c7b7          	lui	a5,0x8001c
8000171c:	0e478513          	addi	a0,a5,228 # 8001c0e4 <__stack_top+0xcbb1c0e4>
80001720:	b19ff0ef          	jal	ra,80001238 <printf>
80001724:	0000006f          	j	80001724 <exit+0x40>

80001728 <srand>:
80001728:	ff010113          	addi	sp,sp,-16
8000172c:	00a12623          	sw	a0,12(sp)
80001730:	00c12703          	lw	a4,12(sp)
80001734:	8001c7b7          	lui	a5,0x8001c
80001738:	2ae7a023          	sw	a4,672(a5) # 8001c2a0 <__stack_top+0xcbb1c2a0>
8000173c:	00000013          	nop
80001740:	01010113          	addi	sp,sp,16
80001744:	00008067          	ret

80001748 <rand>:
80001748:	8001c7b7          	lui	a5,0x8001c
8000174c:	2a07a703          	lw	a4,672(a5) # 8001c2a0 <__stack_top+0xcbb1c2a0>
80001750:	000347b7          	lui	a5,0x34
80001754:	3fd78793          	addi	a5,a5,1021 # 343fd <__stack_size+0x243fd>
80001758:	02f70733          	mul	a4,a4,a5
8000175c:	0026a7b7          	lui	a5,0x26a
80001760:	ec378793          	addi	a5,a5,-317 # 269ec3 <__stack_size+0x259ec3>
80001764:	00f70733          	add	a4,a4,a5
80001768:	8001c7b7          	lui	a5,0x8001c
8000176c:	2ae7a023          	sw	a4,672(a5) # 8001c2a0 <__stack_top+0xcbb1c2a0>
80001770:	8001c7b7          	lui	a5,0x8001c
80001774:	2a07a783          	lw	a5,672(a5) # 8001c2a0 <__stack_top+0xcbb1c2a0>
80001778:	4107d713          	srai	a4,a5,0x10
8000177c:	000087b7          	lui	a5,0x8
80001780:	fff78793          	addi	a5,a5,-1 # 7fff <__stack_size-0x8001>
80001784:	00f777b3          	and	a5,a4,a5
80001788:	00078513          	mv	a0,a5
8000178c:	00008067          	ret

80001790 <empty>:
80001790:	00000013          	nop
80001794:	00008067          	ret

80001798 <pvPortMalloc>:
80001798:	fd010113          	addi	sp,sp,-48
8000179c:	02112623          	sw	ra,44(sp)
800017a0:	00a12623          	sw	a0,12(sp)
800017a4:	00012a23          	sw	zero,20(sp)
800017a8:	8001c7b7          	lui	a5,0x8001c
800017ac:	b887a783          	lw	a5,-1144(a5) # 8001bb88 <__stack_top+0xcbb1bb88>
800017b0:	00079463          	bnez	a5,800017b8 <pvPortMalloc+0x20>
800017b4:	294000ef          	jal	ra,80001a48 <prvHeapInit>
800017b8:	8001c7b7          	lui	a5,0x8001c
800017bc:	b947a703          	lw	a4,-1132(a5) # 8001bb94 <__stack_top+0xcbb1bb94>
800017c0:	00c12783          	lw	a5,12(sp)
800017c4:	00f777b3          	and	a5,a4,a5
800017c8:	18079663          	bnez	a5,80001954 <pvPortMalloc+0x1bc>
800017cc:	00c12783          	lw	a5,12(sp)
800017d0:	02078863          	beqz	a5,80001800 <pvPortMalloc+0x68>
800017d4:	00800793          	li	a5,8
800017d8:	00c12703          	lw	a4,12(sp)
800017dc:	00f707b3          	add	a5,a4,a5
800017e0:	00f12623          	sw	a5,12(sp)
800017e4:	00c12783          	lw	a5,12(sp)
800017e8:	0037f793          	andi	a5,a5,3
800017ec:	00078a63          	beqz	a5,80001800 <pvPortMalloc+0x68>
800017f0:	00c12783          	lw	a5,12(sp)
800017f4:	ffc7f793          	andi	a5,a5,-4
800017f8:	00478793          	addi	a5,a5,4
800017fc:	00f12623          	sw	a5,12(sp)
80001800:	00c12783          	lw	a5,12(sp)
80001804:	14078863          	beqz	a5,80001954 <pvPortMalloc+0x1bc>
80001808:	8001c7b7          	lui	a5,0x8001c
8000180c:	b8c7a783          	lw	a5,-1140(a5) # 8001bb8c <__stack_top+0xcbb1bb8c>
80001810:	00c12703          	lw	a4,12(sp)
80001814:	14e7e063          	bltu	a5,a4,80001954 <pvPortMalloc+0x1bc>
80001818:	8001c7b7          	lui	a5,0x8001c
8000181c:	b8078793          	addi	a5,a5,-1152 # 8001bb80 <__stack_top+0xcbb1bb80>
80001820:	00f12c23          	sw	a5,24(sp)
80001824:	8001c7b7          	lui	a5,0x8001c
80001828:	b807a783          	lw	a5,-1152(a5) # 8001bb80 <__stack_top+0xcbb1bb80>
8000182c:	00f12e23          	sw	a5,28(sp)
80001830:	0180006f          	j	80001848 <pvPortMalloc+0xb0>
80001834:	01c12783          	lw	a5,28(sp)
80001838:	00f12c23          	sw	a5,24(sp)
8000183c:	01c12783          	lw	a5,28(sp)
80001840:	0007a783          	lw	a5,0(a5)
80001844:	00f12e23          	sw	a5,28(sp)
80001848:	01c12783          	lw	a5,28(sp)
8000184c:	0047a783          	lw	a5,4(a5)
80001850:	00c12703          	lw	a4,12(sp)
80001854:	00e7f863          	bleu	a4,a5,80001864 <pvPortMalloc+0xcc>
80001858:	01c12783          	lw	a5,28(sp)
8000185c:	0007a783          	lw	a5,0(a5)
80001860:	fc079ae3          	bnez	a5,80001834 <pvPortMalloc+0x9c>
80001864:	8001c7b7          	lui	a5,0x8001c
80001868:	b887a783          	lw	a5,-1144(a5) # 8001bb88 <__stack_top+0xcbb1bb88>
8000186c:	01c12703          	lw	a4,28(sp)
80001870:	0ef70263          	beq	a4,a5,80001954 <pvPortMalloc+0x1bc>
80001874:	01812783          	lw	a5,24(sp)
80001878:	0007a703          	lw	a4,0(a5)
8000187c:	00800793          	li	a5,8
80001880:	00f707b3          	add	a5,a4,a5
80001884:	00f12a23          	sw	a5,20(sp)
80001888:	01c12783          	lw	a5,28(sp)
8000188c:	0007a703          	lw	a4,0(a5)
80001890:	01812783          	lw	a5,24(sp)
80001894:	00e7a023          	sw	a4,0(a5)
80001898:	01c12783          	lw	a5,28(sp)
8000189c:	0047a703          	lw	a4,4(a5)
800018a0:	00c12783          	lw	a5,12(sp)
800018a4:	40f70733          	sub	a4,a4,a5
800018a8:	00800793          	li	a5,8
800018ac:	00179793          	slli	a5,a5,0x1
800018b0:	04e7f063          	bleu	a4,a5,800018f0 <pvPortMalloc+0x158>
800018b4:	01c12703          	lw	a4,28(sp)
800018b8:	00c12783          	lw	a5,12(sp)
800018bc:	00f707b3          	add	a5,a4,a5
800018c0:	00f12823          	sw	a5,16(sp)
800018c4:	01c12783          	lw	a5,28(sp)
800018c8:	0047a703          	lw	a4,4(a5)
800018cc:	00c12783          	lw	a5,12(sp)
800018d0:	40f70733          	sub	a4,a4,a5
800018d4:	01012783          	lw	a5,16(sp)
800018d8:	00e7a223          	sw	a4,4(a5)
800018dc:	01c12783          	lw	a5,28(sp)
800018e0:	00c12703          	lw	a4,12(sp)
800018e4:	00e7a223          	sw	a4,4(a5)
800018e8:	01012503          	lw	a0,16(sp)
800018ec:	29c000ef          	jal	ra,80001b88 <prvInsertBlockIntoFreeList>
800018f0:	8001c7b7          	lui	a5,0x8001c
800018f4:	b8c7a703          	lw	a4,-1140(a5) # 8001bb8c <__stack_top+0xcbb1bb8c>
800018f8:	01c12783          	lw	a5,28(sp)
800018fc:	0047a783          	lw	a5,4(a5)
80001900:	40f70733          	sub	a4,a4,a5
80001904:	8001c7b7          	lui	a5,0x8001c
80001908:	b8e7a623          	sw	a4,-1140(a5) # 8001bb8c <__stack_top+0xcbb1bb8c>
8000190c:	8001c7b7          	lui	a5,0x8001c
80001910:	b8c7a703          	lw	a4,-1140(a5) # 8001bb8c <__stack_top+0xcbb1bb8c>
80001914:	8001c7b7          	lui	a5,0x8001c
80001918:	b907a783          	lw	a5,-1136(a5) # 8001bb90 <__stack_top+0xcbb1bb90>
8000191c:	00f77a63          	bleu	a5,a4,80001930 <pvPortMalloc+0x198>
80001920:	8001c7b7          	lui	a5,0x8001c
80001924:	b8c7a703          	lw	a4,-1140(a5) # 8001bb8c <__stack_top+0xcbb1bb8c>
80001928:	8001c7b7          	lui	a5,0x8001c
8000192c:	b8e7a823          	sw	a4,-1136(a5) # 8001bb90 <__stack_top+0xcbb1bb90>
80001930:	01c12783          	lw	a5,28(sp)
80001934:	0047a703          	lw	a4,4(a5)
80001938:	8001c7b7          	lui	a5,0x8001c
8000193c:	b947a783          	lw	a5,-1132(a5) # 8001bb94 <__stack_top+0xcbb1bb94>
80001940:	00f76733          	or	a4,a4,a5
80001944:	01c12783          	lw	a5,28(sp)
80001948:	00e7a223          	sw	a4,4(a5)
8000194c:	01c12783          	lw	a5,28(sp)
80001950:	0007a023          	sw	zero,0(a5)
80001954:	e3dff0ef          	jal	ra,80001790 <empty>
80001958:	01412783          	lw	a5,20(sp)
8000195c:	00078513          	mv	a0,a5
80001960:	02c12083          	lw	ra,44(sp)
80001964:	03010113          	addi	sp,sp,48
80001968:	00008067          	ret

8000196c <vPortFree>:
8000196c:	fd010113          	addi	sp,sp,-48
80001970:	02112623          	sw	ra,44(sp)
80001974:	00a12623          	sw	a0,12(sp)
80001978:	00c12783          	lw	a5,12(sp)
8000197c:	00f12e23          	sw	a5,28(sp)
80001980:	00c12783          	lw	a5,12(sp)
80001984:	08078663          	beqz	a5,80001a10 <vPortFree+0xa4>
80001988:	00800793          	li	a5,8
8000198c:	40f007b3          	neg	a5,a5
80001990:	01c12703          	lw	a4,28(sp)
80001994:	00f707b3          	add	a5,a4,a5
80001998:	00f12e23          	sw	a5,28(sp)
8000199c:	01c12783          	lw	a5,28(sp)
800019a0:	00f12c23          	sw	a5,24(sp)
800019a4:	01812783          	lw	a5,24(sp)
800019a8:	0047a703          	lw	a4,4(a5)
800019ac:	8001c7b7          	lui	a5,0x8001c
800019b0:	b947a783          	lw	a5,-1132(a5) # 8001bb94 <__stack_top+0xcbb1bb94>
800019b4:	00f777b3          	and	a5,a4,a5
800019b8:	04078c63          	beqz	a5,80001a10 <vPortFree+0xa4>
800019bc:	01812783          	lw	a5,24(sp)
800019c0:	0007a783          	lw	a5,0(a5)
800019c4:	04079663          	bnez	a5,80001a10 <vPortFree+0xa4>
800019c8:	01812783          	lw	a5,24(sp)
800019cc:	0047a703          	lw	a4,4(a5)
800019d0:	8001c7b7          	lui	a5,0x8001c
800019d4:	b947a783          	lw	a5,-1132(a5) # 8001bb94 <__stack_top+0xcbb1bb94>
800019d8:	fff7c793          	not	a5,a5
800019dc:	00f77733          	and	a4,a4,a5
800019e0:	01812783          	lw	a5,24(sp)
800019e4:	00e7a223          	sw	a4,4(a5)
800019e8:	01812783          	lw	a5,24(sp)
800019ec:	0047a703          	lw	a4,4(a5)
800019f0:	8001c7b7          	lui	a5,0x8001c
800019f4:	b8c7a783          	lw	a5,-1140(a5) # 8001bb8c <__stack_top+0xcbb1bb8c>
800019f8:	00f70733          	add	a4,a4,a5
800019fc:	8001c7b7          	lui	a5,0x8001c
80001a00:	b8e7a623          	sw	a4,-1140(a5) # 8001bb8c <__stack_top+0xcbb1bb8c>
80001a04:	01812503          	lw	a0,24(sp)
80001a08:	180000ef          	jal	ra,80001b88 <prvInsertBlockIntoFreeList>
80001a0c:	d85ff0ef          	jal	ra,80001790 <empty>
80001a10:	00000013          	nop
80001a14:	02c12083          	lw	ra,44(sp)
80001a18:	03010113          	addi	sp,sp,48
80001a1c:	00008067          	ret

80001a20 <xPortGetFreeHeapSize>:
80001a20:	8001c7b7          	lui	a5,0x8001c
80001a24:	b8c7a783          	lw	a5,-1140(a5) # 8001bb8c <__stack_top+0xcbb1bb8c>
80001a28:	00078513          	mv	a0,a5
80001a2c:	00008067          	ret

80001a30 <xPortGetMinimumEverFreeHeapSize>:
80001a30:	8001c7b7          	lui	a5,0x8001c
80001a34:	b907a783          	lw	a5,-1136(a5) # 8001bb90 <__stack_top+0xcbb1bb90>
80001a38:	00078513          	mv	a0,a5
80001a3c:	00008067          	ret

80001a40 <vPortInitialiseBlocks>:
80001a40:	00000013          	nop
80001a44:	00008067          	ret

80001a48 <prvHeapInit>:
80001a48:	ff010113          	addi	sp,sp,-16
80001a4c:	200007b7          	lui	a5,0x20000
80001a50:	00f12423          	sw	a5,8(sp)
80001a54:	8001c7b7          	lui	a5,0x8001c
80001a58:	b0000737          	lui	a4,0xb0000
80001a5c:	00070713          	mv	a4,a4
80001a60:	b6e7ae23          	sw	a4,-1156(a5) # 8001bb7c <__stack_top+0xcbb1bb7c>
80001a64:	8001c7b7          	lui	a5,0x8001c
80001a68:	b7c7a783          	lw	a5,-1156(a5) # 8001bb7c <__stack_top+0xcbb1bb7c>
80001a6c:	00f12623          	sw	a5,12(sp)
80001a70:	00c12783          	lw	a5,12(sp)
80001a74:	0037f793          	andi	a5,a5,3
80001a78:	02078e63          	beqz	a5,80001ab4 <prvHeapInit+0x6c>
80001a7c:	00c12783          	lw	a5,12(sp)
80001a80:	00378793          	addi	a5,a5,3
80001a84:	00f12623          	sw	a5,12(sp)
80001a88:	00c12783          	lw	a5,12(sp)
80001a8c:	ffc7f793          	andi	a5,a5,-4
80001a90:	00f12623          	sw	a5,12(sp)
80001a94:	8001c7b7          	lui	a5,0x8001c
80001a98:	b7c7a783          	lw	a5,-1156(a5) # 8001bb7c <__stack_top+0xcbb1bb7c>
80001a9c:	00078713          	mv	a4,a5
80001aa0:	00c12783          	lw	a5,12(sp)
80001aa4:	40f707b3          	sub	a5,a4,a5
80001aa8:	00812703          	lw	a4,8(sp)
80001aac:	00f707b3          	add	a5,a4,a5
80001ab0:	00f12423          	sw	a5,8(sp)
80001ab4:	00c12783          	lw	a5,12(sp)
80001ab8:	00f12223          	sw	a5,4(sp)
80001abc:	8001c7b7          	lui	a5,0x8001c
80001ac0:	00412703          	lw	a4,4(sp)
80001ac4:	b8e7a023          	sw	a4,-1152(a5) # 8001bb80 <__stack_top+0xcbb1bb80>
80001ac8:	8001c7b7          	lui	a5,0x8001c
80001acc:	b8078793          	addi	a5,a5,-1152 # 8001bb80 <__stack_top+0xcbb1bb80>
80001ad0:	0007a223          	sw	zero,4(a5)
80001ad4:	00412783          	lw	a5,4(sp)
80001ad8:	00812703          	lw	a4,8(sp)
80001adc:	00f707b3          	add	a5,a4,a5
80001ae0:	00f12623          	sw	a5,12(sp)
80001ae4:	00800793          	li	a5,8
80001ae8:	00c12703          	lw	a4,12(sp)
80001aec:	40f707b3          	sub	a5,a4,a5
80001af0:	00f12623          	sw	a5,12(sp)
80001af4:	00c12783          	lw	a5,12(sp)
80001af8:	ffc7f793          	andi	a5,a5,-4
80001afc:	00f12623          	sw	a5,12(sp)
80001b00:	00c12703          	lw	a4,12(sp)
80001b04:	8001c7b7          	lui	a5,0x8001c
80001b08:	b8e7a423          	sw	a4,-1144(a5) # 8001bb88 <__stack_top+0xcbb1bb88>
80001b0c:	8001c7b7          	lui	a5,0x8001c
80001b10:	b887a783          	lw	a5,-1144(a5) # 8001bb88 <__stack_top+0xcbb1bb88>
80001b14:	0007a223          	sw	zero,4(a5)
80001b18:	8001c7b7          	lui	a5,0x8001c
80001b1c:	b887a783          	lw	a5,-1144(a5) # 8001bb88 <__stack_top+0xcbb1bb88>
80001b20:	0007a023          	sw	zero,0(a5)
80001b24:	00412783          	lw	a5,4(sp)
80001b28:	00f12023          	sw	a5,0(sp)
80001b2c:	00012783          	lw	a5,0(sp)
80001b30:	00c12703          	lw	a4,12(sp)
80001b34:	40f70733          	sub	a4,a4,a5
80001b38:	00012783          	lw	a5,0(sp)
80001b3c:	00e7a223          	sw	a4,4(a5)
80001b40:	8001c7b7          	lui	a5,0x8001c
80001b44:	b887a703          	lw	a4,-1144(a5) # 8001bb88 <__stack_top+0xcbb1bb88>
80001b48:	00012783          	lw	a5,0(sp)
80001b4c:	00e7a023          	sw	a4,0(a5)
80001b50:	00012783          	lw	a5,0(sp)
80001b54:	0047a703          	lw	a4,4(a5)
80001b58:	8001c7b7          	lui	a5,0x8001c
80001b5c:	b8e7a823          	sw	a4,-1136(a5) # 8001bb90 <__stack_top+0xcbb1bb90>
80001b60:	00012783          	lw	a5,0(sp)
80001b64:	0047a703          	lw	a4,4(a5)
80001b68:	8001c7b7          	lui	a5,0x8001c
80001b6c:	b8e7a623          	sw	a4,-1140(a5) # 8001bb8c <__stack_top+0xcbb1bb8c>
80001b70:	8001c7b7          	lui	a5,0x8001c
80001b74:	80000737          	lui	a4,0x80000
80001b78:	b8e7aa23          	sw	a4,-1132(a5) # 8001bb94 <__stack_top+0xcbb1bb94>
80001b7c:	00000013          	nop
80001b80:	01010113          	addi	sp,sp,16
80001b84:	00008067          	ret

80001b88 <prvInsertBlockIntoFreeList>:
80001b88:	fe010113          	addi	sp,sp,-32
80001b8c:	00a12623          	sw	a0,12(sp)
80001b90:	8001c7b7          	lui	a5,0x8001c
80001b94:	b8078793          	addi	a5,a5,-1152 # 8001bb80 <__stack_top+0xcbb1bb80>
80001b98:	00f12e23          	sw	a5,28(sp)
80001b9c:	0100006f          	j	80001bac <prvInsertBlockIntoFreeList+0x24>
80001ba0:	01c12783          	lw	a5,28(sp)
80001ba4:	0007a783          	lw	a5,0(a5)
80001ba8:	00f12e23          	sw	a5,28(sp)
80001bac:	01c12783          	lw	a5,28(sp)
80001bb0:	0007a783          	lw	a5,0(a5)
80001bb4:	00c12703          	lw	a4,12(sp)
80001bb8:	fee7e4e3          	bltu	a5,a4,80001ba0 <prvInsertBlockIntoFreeList+0x18>
80001bbc:	01c12783          	lw	a5,28(sp)
80001bc0:	00f12c23          	sw	a5,24(sp)
80001bc4:	01c12783          	lw	a5,28(sp)
80001bc8:	0047a783          	lw	a5,4(a5)
80001bcc:	01812703          	lw	a4,24(sp)
80001bd0:	00f707b3          	add	a5,a4,a5
80001bd4:	00c12703          	lw	a4,12(sp)
80001bd8:	02f71463          	bne	a4,a5,80001c00 <prvInsertBlockIntoFreeList+0x78>
80001bdc:	01c12783          	lw	a5,28(sp)
80001be0:	0047a703          	lw	a4,4(a5)
80001be4:	00c12783          	lw	a5,12(sp)
80001be8:	0047a783          	lw	a5,4(a5)
80001bec:	00f70733          	add	a4,a4,a5
80001bf0:	01c12783          	lw	a5,28(sp)
80001bf4:	00e7a223          	sw	a4,4(a5)
80001bf8:	01c12783          	lw	a5,28(sp)
80001bfc:	00f12623          	sw	a5,12(sp)
80001c00:	00c12783          	lw	a5,12(sp)
80001c04:	00f12c23          	sw	a5,24(sp)
80001c08:	00c12783          	lw	a5,12(sp)
80001c0c:	0047a783          	lw	a5,4(a5)
80001c10:	01812703          	lw	a4,24(sp)
80001c14:	00f70733          	add	a4,a4,a5
80001c18:	01c12783          	lw	a5,28(sp)
80001c1c:	0007a783          	lw	a5,0(a5)
80001c20:	06f71263          	bne	a4,a5,80001c84 <prvInsertBlockIntoFreeList+0xfc>
80001c24:	01c12783          	lw	a5,28(sp)
80001c28:	0007a703          	lw	a4,0(a5)
80001c2c:	8001c7b7          	lui	a5,0x8001c
80001c30:	b887a783          	lw	a5,-1144(a5) # 8001bb88 <__stack_top+0xcbb1bb88>
80001c34:	02f70e63          	beq	a4,a5,80001c70 <prvInsertBlockIntoFreeList+0xe8>
80001c38:	00c12783          	lw	a5,12(sp)
80001c3c:	0047a703          	lw	a4,4(a5)
80001c40:	01c12783          	lw	a5,28(sp)
80001c44:	0007a783          	lw	a5,0(a5)
80001c48:	0047a783          	lw	a5,4(a5)
80001c4c:	00f70733          	add	a4,a4,a5
80001c50:	00c12783          	lw	a5,12(sp)
80001c54:	00e7a223          	sw	a4,4(a5)
80001c58:	01c12783          	lw	a5,28(sp)
80001c5c:	0007a783          	lw	a5,0(a5)
80001c60:	0007a703          	lw	a4,0(a5)
80001c64:	00c12783          	lw	a5,12(sp)
80001c68:	00e7a023          	sw	a4,0(a5)
80001c6c:	0280006f          	j	80001c94 <prvInsertBlockIntoFreeList+0x10c>
80001c70:	8001c7b7          	lui	a5,0x8001c
80001c74:	b887a703          	lw	a4,-1144(a5) # 8001bb88 <__stack_top+0xcbb1bb88>
80001c78:	00c12783          	lw	a5,12(sp)
80001c7c:	00e7a023          	sw	a4,0(a5)
80001c80:	0140006f          	j	80001c94 <prvInsertBlockIntoFreeList+0x10c>
80001c84:	01c12783          	lw	a5,28(sp)
80001c88:	0007a703          	lw	a4,0(a5)
80001c8c:	00c12783          	lw	a5,12(sp)
80001c90:	00e7a023          	sw	a4,0(a5)
80001c94:	01c12703          	lw	a4,28(sp)
80001c98:	00c12783          	lw	a5,12(sp)
80001c9c:	00f70863          	beq	a4,a5,80001cac <prvInsertBlockIntoFreeList+0x124>
80001ca0:	01c12783          	lw	a5,28(sp)
80001ca4:	00c12703          	lw	a4,12(sp)
80001ca8:	00e7a023          	sw	a4,0(a5)
80001cac:	00000013          	nop
80001cb0:	02010113          	addi	sp,sp,32
80001cb4:	00008067          	ret

80001cb8 <memcpy>:
80001cb8:	fe010113          	addi	sp,sp,-32
80001cbc:	00a12623          	sw	a0,12(sp)
80001cc0:	00b12423          	sw	a1,8(sp)
80001cc4:	00c12223          	sw	a2,4(sp)
80001cc8:	00c12783          	lw	a5,12(sp)
80001ccc:	00f12e23          	sw	a5,28(sp)
80001cd0:	00812783          	lw	a5,8(sp)
80001cd4:	00f12c23          	sw	a5,24(sp)
80001cd8:	00012a23          	sw	zero,20(sp)
80001cdc:	0300006f          	j	80001d0c <memcpy+0x54>
80001ce0:	01812703          	lw	a4,24(sp)
80001ce4:	00170793          	addi	a5,a4,1 # 80000001 <__stack_top+0xcbb00001>
80001ce8:	00f12c23          	sw	a5,24(sp)
80001cec:	01c12783          	lw	a5,28(sp)
80001cf0:	00178693          	addi	a3,a5,1
80001cf4:	00d12e23          	sw	a3,28(sp)
80001cf8:	00074703          	lbu	a4,0(a4)
80001cfc:	00e78023          	sb	a4,0(a5)
80001d00:	01412783          	lw	a5,20(sp)
80001d04:	00178793          	addi	a5,a5,1
80001d08:	00f12a23          	sw	a5,20(sp)
80001d0c:	01412783          	lw	a5,20(sp)
80001d10:	00412703          	lw	a4,4(sp)
80001d14:	fce7e6e3          	bltu	a5,a4,80001ce0 <memcpy+0x28>
80001d18:	00c12783          	lw	a5,12(sp)
80001d1c:	00078513          	mv	a0,a5
80001d20:	02010113          	addi	sp,sp,32
80001d24:	00008067          	ret

80001d28 <memmove>:
80001d28:	fe010113          	addi	sp,sp,-32
80001d2c:	00a12623          	sw	a0,12(sp)
80001d30:	00b12423          	sw	a1,8(sp)
80001d34:	00c12223          	sw	a2,4(sp)
80001d38:	00c12783          	lw	a5,12(sp)
80001d3c:	00f12e23          	sw	a5,28(sp)
80001d40:	00812783          	lw	a5,8(sp)
80001d44:	00f12c23          	sw	a5,24(sp)
80001d48:	00c12703          	lw	a4,12(sp)
80001d4c:	00812783          	lw	a5,8(sp)
80001d50:	06f76063          	bltu	a4,a5,80001db0 <memmove+0x88>
80001d54:	00812703          	lw	a4,8(sp)
80001d58:	00412783          	lw	a5,4(sp)
80001d5c:	00f70733          	add	a4,a4,a5
80001d60:	00c12783          	lw	a5,12(sp)
80001d64:	04f76663          	bltu	a4,a5,80001db0 <memmove+0x88>
80001d68:	00412783          	lw	a5,4(sp)
80001d6c:	fff78793          	addi	a5,a5,-1
80001d70:	00f12a23          	sw	a5,20(sp)
80001d74:	0300006f          	j	80001da4 <memmove+0x7c>
80001d78:	01412783          	lw	a5,20(sp)
80001d7c:	01812703          	lw	a4,24(sp)
80001d80:	00f70733          	add	a4,a4,a5
80001d84:	01412783          	lw	a5,20(sp)
80001d88:	01c12683          	lw	a3,28(sp)
80001d8c:	00f687b3          	add	a5,a3,a5
80001d90:	00074703          	lbu	a4,0(a4)
80001d94:	00e78023          	sb	a4,0(a5)
80001d98:	01412783          	lw	a5,20(sp)
80001d9c:	fff78793          	addi	a5,a5,-1
80001da0:	00f12a23          	sw	a5,20(sp)
80001da4:	01412783          	lw	a5,20(sp)
80001da8:	fc07d8e3          	bgez	a5,80001d78 <memmove+0x50>
80001dac:	0440006f          	j	80001df0 <memmove+0xc8>
80001db0:	00012823          	sw	zero,16(sp)
80001db4:	0300006f          	j	80001de4 <memmove+0xbc>
80001db8:	01812703          	lw	a4,24(sp)
80001dbc:	00170793          	addi	a5,a4,1
80001dc0:	00f12c23          	sw	a5,24(sp)
80001dc4:	01c12783          	lw	a5,28(sp)
80001dc8:	00178693          	addi	a3,a5,1
80001dcc:	00d12e23          	sw	a3,28(sp)
80001dd0:	00074703          	lbu	a4,0(a4)
80001dd4:	00e78023          	sb	a4,0(a5)
80001dd8:	01012783          	lw	a5,16(sp)
80001ddc:	00178793          	addi	a5,a5,1
80001de0:	00f12823          	sw	a5,16(sp)
80001de4:	01012783          	lw	a5,16(sp)
80001de8:	00412703          	lw	a4,4(sp)
80001dec:	fce7e6e3          	bltu	a5,a4,80001db8 <memmove+0x90>
80001df0:	00c12783          	lw	a5,12(sp)
80001df4:	00078513          	mv	a0,a5
80001df8:	02010113          	addi	sp,sp,32
80001dfc:	00008067          	ret

80001e00 <memset>:
80001e00:	fe010113          	addi	sp,sp,-32
80001e04:	00a12623          	sw	a0,12(sp)
80001e08:	00b12423          	sw	a1,8(sp)
80001e0c:	00c12223          	sw	a2,4(sp)
80001e10:	00c12783          	lw	a5,12(sp)
80001e14:	00f12e23          	sw	a5,28(sp)
80001e18:	00012c23          	sw	zero,24(sp)
80001e1c:	0280006f          	j	80001e44 <memset+0x44>
80001e20:	01c12783          	lw	a5,28(sp)
80001e24:	00178713          	addi	a4,a5,1
80001e28:	00e12e23          	sw	a4,28(sp)
80001e2c:	00812703          	lw	a4,8(sp)
80001e30:	0ff77713          	andi	a4,a4,255
80001e34:	00e78023          	sb	a4,0(a5)
80001e38:	01812783          	lw	a5,24(sp)
80001e3c:	00178793          	addi	a5,a5,1
80001e40:	00f12c23          	sw	a5,24(sp)
80001e44:	01812783          	lw	a5,24(sp)
80001e48:	00412703          	lw	a4,4(sp)
80001e4c:	fce7eae3          	bltu	a5,a4,80001e20 <memset+0x20>
80001e50:	00c12783          	lw	a5,12(sp)
80001e54:	00078513          	mv	a0,a5
80001e58:	02010113          	addi	sp,sp,32
80001e5c:	00008067          	ret

80001e60 <strlen>:
80001e60:	fe010113          	addi	sp,sp,-32
80001e64:	00a12623          	sw	a0,12(sp)
80001e68:	00012e23          	sw	zero,28(sp)
80001e6c:	0100006f          	j	80001e7c <strlen+0x1c>
80001e70:	01c12783          	lw	a5,28(sp)
80001e74:	00178793          	addi	a5,a5,1
80001e78:	00f12e23          	sw	a5,28(sp)
80001e7c:	00c12783          	lw	a5,12(sp)
80001e80:	00178713          	addi	a4,a5,1
80001e84:	00e12623          	sw	a4,12(sp)
80001e88:	0007c783          	lbu	a5,0(a5)
80001e8c:	fe0792e3          	bnez	a5,80001e70 <strlen+0x10>
80001e90:	01c12783          	lw	a5,28(sp)
80001e94:	00078513          	mv	a0,a5
80001e98:	02010113          	addi	sp,sp,32
80001e9c:	00008067          	ret

80001ea0 <strcpy>:
80001ea0:	fe010113          	addi	sp,sp,-32
80001ea4:	00a12623          	sw	a0,12(sp)
80001ea8:	00b12423          	sw	a1,8(sp)
80001eac:	00c12783          	lw	a5,12(sp)
80001eb0:	00f12e23          	sw	a5,28(sp)
80001eb4:	0240006f          	j	80001ed8 <strcpy+0x38>
80001eb8:	00812703          	lw	a4,8(sp)
80001ebc:	00170793          	addi	a5,a4,1
80001ec0:	00f12423          	sw	a5,8(sp)
80001ec4:	01c12783          	lw	a5,28(sp)
80001ec8:	00178693          	addi	a3,a5,1
80001ecc:	00d12e23          	sw	a3,28(sp)
80001ed0:	00074703          	lbu	a4,0(a4)
80001ed4:	00e78023          	sb	a4,0(a5)
80001ed8:	00812783          	lw	a5,8(sp)
80001edc:	0007c783          	lbu	a5,0(a5)
80001ee0:	fc079ce3          	bnez	a5,80001eb8 <strcpy+0x18>
80001ee4:	01c12783          	lw	a5,28(sp)
80001ee8:	00078023          	sb	zero,0(a5)
80001eec:	00c12783          	lw	a5,12(sp)
80001ef0:	00078513          	mv	a0,a5
80001ef4:	02010113          	addi	sp,sp,32
80001ef8:	00008067          	ret

80001efc <strncpy>:
80001efc:	fe010113          	addi	sp,sp,-32
80001f00:	00a12623          	sw	a0,12(sp)
80001f04:	00b12423          	sw	a1,8(sp)
80001f08:	00c12223          	sw	a2,4(sp)
80001f0c:	00c12783          	lw	a5,12(sp)
80001f10:	00f12e23          	sw	a5,28(sp)
80001f14:	0300006f          	j	80001f44 <strncpy+0x48>
80001f18:	00812703          	lw	a4,8(sp)
80001f1c:	00170793          	addi	a5,a4,1
80001f20:	00f12423          	sw	a5,8(sp)
80001f24:	01c12783          	lw	a5,28(sp)
80001f28:	00178693          	addi	a3,a5,1
80001f2c:	00d12e23          	sw	a3,28(sp)
80001f30:	00074703          	lbu	a4,0(a4)
80001f34:	00e78023          	sb	a4,0(a5)
80001f38:	00412783          	lw	a5,4(sp)
80001f3c:	fff78793          	addi	a5,a5,-1
80001f40:	00f12223          	sw	a5,4(sp)
80001f44:	00812783          	lw	a5,8(sp)
80001f48:	0007c783          	lbu	a5,0(a5)
80001f4c:	02078063          	beqz	a5,80001f6c <strncpy+0x70>
80001f50:	00412783          	lw	a5,4(sp)
80001f54:	fc0792e3          	bnez	a5,80001f18 <strncpy+0x1c>
80001f58:	0140006f          	j	80001f6c <strncpy+0x70>
80001f5c:	01c12783          	lw	a5,28(sp)
80001f60:	00178713          	addi	a4,a5,1
80001f64:	00e12e23          	sw	a4,28(sp)
80001f68:	00078023          	sb	zero,0(a5)
80001f6c:	00412783          	lw	a5,4(sp)
80001f70:	fff78713          	addi	a4,a5,-1
80001f74:	00e12223          	sw	a4,4(sp)
80001f78:	fe0792e3          	bnez	a5,80001f5c <strncpy+0x60>
80001f7c:	00c12783          	lw	a5,12(sp)
80001f80:	00078513          	mv	a0,a5
80001f84:	02010113          	addi	sp,sp,32
80001f88:	00008067          	ret

80001f8c <strcat>:
80001f8c:	fe010113          	addi	sp,sp,-32
80001f90:	00a12623          	sw	a0,12(sp)
80001f94:	00b12423          	sw	a1,8(sp)
80001f98:	00c12783          	lw	a5,12(sp)
80001f9c:	00f12e23          	sw	a5,28(sp)
80001fa0:	0100006f          	j	80001fb0 <strcat+0x24>
80001fa4:	01c12783          	lw	a5,28(sp)
80001fa8:	00178793          	addi	a5,a5,1
80001fac:	00f12e23          	sw	a5,28(sp)
80001fb0:	01c12783          	lw	a5,28(sp)
80001fb4:	0007c783          	lbu	a5,0(a5)
80001fb8:	fe0796e3          	bnez	a5,80001fa4 <strcat+0x18>
80001fbc:	0240006f          	j	80001fe0 <strcat+0x54>
80001fc0:	00812703          	lw	a4,8(sp)
80001fc4:	00170793          	addi	a5,a4,1
80001fc8:	00f12423          	sw	a5,8(sp)
80001fcc:	01c12783          	lw	a5,28(sp)
80001fd0:	00178693          	addi	a3,a5,1
80001fd4:	00d12e23          	sw	a3,28(sp)
80001fd8:	00074703          	lbu	a4,0(a4)
80001fdc:	00e78023          	sb	a4,0(a5)
80001fe0:	00812783          	lw	a5,8(sp)
80001fe4:	0007c783          	lbu	a5,0(a5)
80001fe8:	fc079ce3          	bnez	a5,80001fc0 <strcat+0x34>
80001fec:	01c12783          	lw	a5,28(sp)
80001ff0:	00078023          	sb	zero,0(a5)
80001ff4:	00c12783          	lw	a5,12(sp)
80001ff8:	00078513          	mv	a0,a5
80001ffc:	02010113          	addi	sp,sp,32
80002000:	00008067          	ret

80002004 <strncat>:
80002004:	fe010113          	addi	sp,sp,-32
80002008:	00a12623          	sw	a0,12(sp)
8000200c:	00b12423          	sw	a1,8(sp)
80002010:	00c12223          	sw	a2,4(sp)
80002014:	00c12783          	lw	a5,12(sp)
80002018:	00f12e23          	sw	a5,28(sp)
8000201c:	0100006f          	j	8000202c <strncat+0x28>
80002020:	01c12783          	lw	a5,28(sp)
80002024:	00178793          	addi	a5,a5,1
80002028:	00f12e23          	sw	a5,28(sp)
8000202c:	01c12783          	lw	a5,28(sp)
80002030:	0007c783          	lbu	a5,0(a5)
80002034:	fe0796e3          	bnez	a5,80002020 <strncat+0x1c>
80002038:	0300006f          	j	80002068 <strncat+0x64>
8000203c:	00812703          	lw	a4,8(sp)
80002040:	00170793          	addi	a5,a4,1
80002044:	00f12423          	sw	a5,8(sp)
80002048:	01c12783          	lw	a5,28(sp)
8000204c:	00178693          	addi	a3,a5,1
80002050:	00d12e23          	sw	a3,28(sp)
80002054:	00074703          	lbu	a4,0(a4)
80002058:	00e78023          	sb	a4,0(a5)
8000205c:	00412783          	lw	a5,4(sp)
80002060:	fff78793          	addi	a5,a5,-1
80002064:	00f12223          	sw	a5,4(sp)
80002068:	00812783          	lw	a5,8(sp)
8000206c:	0007c783          	lbu	a5,0(a5)
80002070:	00078663          	beqz	a5,8000207c <strncat+0x78>
80002074:	00412783          	lw	a5,4(sp)
80002078:	fc0792e3          	bnez	a5,8000203c <strncat+0x38>
8000207c:	01c12783          	lw	a5,28(sp)
80002080:	00078023          	sb	zero,0(a5)
80002084:	00c12783          	lw	a5,12(sp)
80002088:	00078513          	mv	a0,a5
8000208c:	02010113          	addi	sp,sp,32
80002090:	00008067          	ret

80002094 <strcmp>:
80002094:	fe010113          	addi	sp,sp,-32
80002098:	00a12623          	sw	a0,12(sp)
8000209c:	00b12423          	sw	a1,8(sp)
800020a0:	00c12783          	lw	a5,12(sp)
800020a4:	fff78793          	addi	a5,a5,-1
800020a8:	00f12623          	sw	a5,12(sp)
800020ac:	00812783          	lw	a5,8(sp)
800020b0:	fff78793          	addi	a5,a5,-1
800020b4:	00f12423          	sw	a5,8(sp)
800020b8:	00c12783          	lw	a5,12(sp)
800020bc:	00178793          	addi	a5,a5,1
800020c0:	00f12623          	sw	a5,12(sp)
800020c4:	00812783          	lw	a5,8(sp)
800020c8:	00178793          	addi	a5,a5,1
800020cc:	00f12423          	sw	a5,8(sp)
800020d0:	00c12783          	lw	a5,12(sp)
800020d4:	0007c703          	lbu	a4,0(a5)
800020d8:	00812783          	lw	a5,8(sp)
800020dc:	0007c783          	lbu	a5,0(a5)
800020e0:	00f71c63          	bne	a4,a5,800020f8 <strcmp+0x64>
800020e4:	00012e23          	sw	zero,28(sp)
800020e8:	00c12783          	lw	a5,12(sp)
800020ec:	0007c783          	lbu	a5,0(a5)
800020f0:	04078063          	beqz	a5,80002130 <strcmp+0x9c>
800020f4:	0300006f          	j	80002124 <strcmp+0x90>
800020f8:	00c12783          	lw	a5,12(sp)
800020fc:	0007c703          	lbu	a4,0(a5)
80002100:	00812783          	lw	a5,8(sp)
80002104:	0007c783          	lbu	a5,0(a5)
80002108:	00f77863          	bleu	a5,a4,80002118 <strcmp+0x84>
8000210c:	fff00793          	li	a5,-1
80002110:	00f12e23          	sw	a5,28(sp)
80002114:	01c0006f          	j	80002130 <strcmp+0x9c>
80002118:	00100793          	li	a5,1
8000211c:	00f12e23          	sw	a5,28(sp)
80002120:	0100006f          	j	80002130 <strcmp+0x9c>
80002124:	00812783          	lw	a5,8(sp)
80002128:	0007c783          	lbu	a5,0(a5)
8000212c:	f80796e3          	bnez	a5,800020b8 <strcmp+0x24>
80002130:	01c12783          	lw	a5,28(sp)
80002134:	00078513          	mv	a0,a5
80002138:	02010113          	addi	sp,sp,32
8000213c:	00008067          	ret

80002140 <strncmp>:
80002140:	fe010113          	addi	sp,sp,-32
80002144:	00a12623          	sw	a0,12(sp)
80002148:	00b12423          	sw	a1,8(sp)
8000214c:	00c12223          	sw	a2,4(sp)
80002150:	00c12783          	lw	a5,12(sp)
80002154:	fff78793          	addi	a5,a5,-1
80002158:	00f12623          	sw	a5,12(sp)
8000215c:	00812783          	lw	a5,8(sp)
80002160:	fff78793          	addi	a5,a5,-1
80002164:	00f12423          	sw	a5,8(sp)
80002168:	00c12783          	lw	a5,12(sp)
8000216c:	00178793          	addi	a5,a5,1
80002170:	00f12623          	sw	a5,12(sp)
80002174:	00812783          	lw	a5,8(sp)
80002178:	00178793          	addi	a5,a5,1
8000217c:	00f12423          	sw	a5,8(sp)
80002180:	00c12783          	lw	a5,12(sp)
80002184:	0007c703          	lbu	a4,0(a5)
80002188:	00812783          	lw	a5,8(sp)
8000218c:	0007c783          	lbu	a5,0(a5)
80002190:	02f71063          	bne	a4,a5,800021b0 <strncmp+0x70>
80002194:	00012e23          	sw	zero,28(sp)
80002198:	00412783          	lw	a5,4(sp)
8000219c:	fff78793          	addi	a5,a5,-1
800021a0:	00f12223          	sw	a5,4(sp)
800021a4:	00412783          	lw	a5,4(sp)
800021a8:	04078663          	beqz	a5,800021f4 <strncmp+0xb4>
800021ac:	0300006f          	j	800021dc <strncmp+0x9c>
800021b0:	00c12783          	lw	a5,12(sp)
800021b4:	0007c703          	lbu	a4,0(a5)
800021b8:	00812783          	lw	a5,8(sp)
800021bc:	0007c783          	lbu	a5,0(a5)
800021c0:	00f77863          	bleu	a5,a4,800021d0 <strncmp+0x90>
800021c4:	fff00793          	li	a5,-1
800021c8:	00f12e23          	sw	a5,28(sp)
800021cc:	0280006f          	j	800021f4 <strncmp+0xb4>
800021d0:	00100793          	li	a5,1
800021d4:	00f12e23          	sw	a5,28(sp)
800021d8:	01c0006f          	j	800021f4 <strncmp+0xb4>
800021dc:	00c12783          	lw	a5,12(sp)
800021e0:	0007c783          	lbu	a5,0(a5)
800021e4:	00078863          	beqz	a5,800021f4 <strncmp+0xb4>
800021e8:	00812783          	lw	a5,8(sp)
800021ec:	0007c783          	lbu	a5,0(a5)
800021f0:	f6079ce3          	bnez	a5,80002168 <strncmp+0x28>
800021f4:	01c12783          	lw	a5,28(sp)
800021f8:	00078513          	mv	a0,a5
800021fc:	02010113          	addi	sp,sp,32
80002200:	00008067          	ret

80002204 <clock>:
80002204:	fd010113          	addi	sp,sp,-48
80002208:	02112623          	sw	ra,44(sp)
8000220c:	c0002573          	rdcycle	a0
80002210:	00a12e23          	sw	a0,28(sp)
80002214:	c8002573          	rdcycleh	a0
80002218:	00a12c23          	sw	a0,24(sp)
8000221c:	01812503          	lw	a0,24(sp)
80002220:	00050793          	mv	a5,a0
80002224:	00000813          	li	a6,0
80002228:	00079713          	slli	a4,a5,0x0
8000222c:	00000693          	li	a3,0
80002230:	01c12783          	lw	a5,28(sp)
80002234:	00078593          	mv	a1,a5
80002238:	00000613          	li	a2,0
8000223c:	00b687b3          	add	a5,a3,a1
80002240:	00078513          	mv	a0,a5
80002244:	00d53533          	sltu	a0,a0,a3
80002248:	00c70833          	add	a6,a4,a2
8000224c:	01050733          	add	a4,a0,a6
80002250:	00070813          	mv	a6,a4
80002254:	00f12823          	sw	a5,16(sp)
80002258:	01012a23          	sw	a6,20(sp)
8000225c:	01012783          	lw	a5,16(sp)
80002260:	01412803          	lw	a6,20(sp)
80002264:	06400613          	li	a2,100
80002268:	00000693          	li	a3,0
8000226c:	00078513          	mv	a0,a5
80002270:	00080593          	mv	a1,a6
80002274:	0c4000ef          	jal	ra,80002338 <__divdi3>
80002278:	00050793          	mv	a5,a0
8000227c:	00058813          	mv	a6,a1
80002280:	00f12623          	sw	a5,12(sp)
80002284:	00c12783          	lw	a5,12(sp)
80002288:	00078513          	mv	a0,a5
8000228c:	02c12083          	lw	ra,44(sp)
80002290:	03010113          	addi	sp,sp,48
80002294:	00008067          	ret

80002298 <inbyte>:
80002298:	00000013          	nop
8000229c:	c00007b7          	lui	a5,0xc0000
800022a0:	00878793          	addi	a5,a5,8 # c0000008 <__stack_top+0xbb00008>
800022a4:	0007a783          	lw	a5,0(a5)
800022a8:	0017f793          	andi	a5,a5,1
800022ac:	fe0788e3          	beqz	a5,8000229c <inbyte+0x4>
800022b0:	c00007b7          	lui	a5,0xc0000
800022b4:	0007a783          	lw	a5,0(a5) # c0000000 <__stack_top+0xbb00000>
800022b8:	0ff7f793          	andi	a5,a5,255
800022bc:	00078513          	mv	a0,a5
800022c0:	00008067          	ret

800022c4 <outbyte>:
800022c4:	ff010113          	addi	sp,sp,-16
800022c8:	00050793          	mv	a5,a0
800022cc:	00f107a3          	sb	a5,15(sp)
800022d0:	00f14703          	lbu	a4,15(sp)
800022d4:	00a00793          	li	a5,10
800022d8:	02f71663          	bne	a4,a5,80002304 <outbyte+0x40>
800022dc:	00000013          	nop
800022e0:	c00007b7          	lui	a5,0xc0000
800022e4:	00878793          	addi	a5,a5,8 # c0000008 <__stack_top+0xbb00008>
800022e8:	0007a783          	lw	a5,0(a5)
800022ec:	0087f793          	andi	a5,a5,8
800022f0:	fe0798e3          	bnez	a5,800022e0 <outbyte+0x1c>
800022f4:	c00007b7          	lui	a5,0xc0000
800022f8:	00478793          	addi	a5,a5,4 # c0000004 <__stack_top+0xbb00004>
800022fc:	00d00713          	li	a4,13
80002300:	00e7a023          	sw	a4,0(a5)
80002304:	00000013          	nop
80002308:	c00007b7          	lui	a5,0xc0000
8000230c:	00878793          	addi	a5,a5,8 # c0000008 <__stack_top+0xbb00008>
80002310:	0007a783          	lw	a5,0(a5)
80002314:	0087f793          	andi	a5,a5,8
80002318:	fe0798e3          	bnez	a5,80002308 <outbyte+0x44>
8000231c:	c00007b7          	lui	a5,0xc0000
80002320:	00478793          	addi	a5,a5,4 # c0000004 <__stack_top+0xbb00004>
80002324:	00f14703          	lbu	a4,15(sp)
80002328:	00e7a023          	sw	a4,0(a5)
8000232c:	00000013          	nop
80002330:	01010113          	addi	sp,sp,16
80002334:	00008067          	ret

80002338 <__divdi3>:
80002338:	00000313          	li	t1,0
8000233c:	0005dc63          	bgez	a1,80002354 <__divdi3+0x1c>
80002340:	40a00533          	neg	a0,a0
80002344:	00a03833          	snez	a6,a0
80002348:	40b00733          	neg	a4,a1
8000234c:	410705b3          	sub	a1,a4,a6
80002350:	fff00313          	li	t1,-1
80002354:	0006dc63          	bgez	a3,8000236c <__divdi3+0x34>
80002358:	40c00633          	neg	a2,a2
8000235c:	00c037b3          	snez	a5,a2
80002360:	40d006b3          	neg	a3,a3
80002364:	fff34313          	not	t1,t1
80002368:	40f686b3          	sub	a3,a3,a5
8000236c:	00060813          	mv	a6,a2
80002370:	00068713          	mv	a4,a3
80002374:	00050893          	mv	a7,a0
80002378:	00058e13          	mv	t3,a1
8000237c:	2a069263          	bnez	a3,80002620 <__divdi3+0x2e8>
80002380:	8001c6b7          	lui	a3,0x8001c
80002384:	15868693          	addi	a3,a3,344 # 8001c158 <__stack_top+0xcbb1c158>
80002388:	0ec5f663          	bleu	a2,a1,80002474 <__divdi3+0x13c>
8000238c:	000107b7          	lui	a5,0x10
80002390:	0cf67863          	bleu	a5,a2,80002460 <__divdi3+0x128>
80002394:	0ff00e93          	li	t4,255
80002398:	00cebeb3          	sltu	t4,t4,a2
8000239c:	003e9e93          	slli	t4,t4,0x3
800023a0:	01d657b3          	srl	a5,a2,t4
800023a4:	00f686b3          	add	a3,a3,a5
800023a8:	0006c783          	lbu	a5,0(a3)
800023ac:	01d78eb3          	add	t4,a5,t4
800023b0:	02000793          	li	a5,32
800023b4:	41d787b3          	sub	a5,a5,t4
800023b8:	00078c63          	beqz	a5,800023d0 <__divdi3+0x98>
800023bc:	00f59733          	sll	a4,a1,a5
800023c0:	01d55eb3          	srl	t4,a0,t4
800023c4:	00f61833          	sll	a6,a2,a5
800023c8:	00eeee33          	or	t3,t4,a4
800023cc:	00f518b3          	sll	a7,a0,a5
800023d0:	01085613          	srli	a2,a6,0x10
800023d4:	02ce77b3          	remu	a5,t3,a2
800023d8:	01081593          	slli	a1,a6,0x10
800023dc:	0105d593          	srli	a1,a1,0x10
800023e0:	0108d693          	srli	a3,a7,0x10
800023e4:	02ce5e33          	divu	t3,t3,a2
800023e8:	01079793          	slli	a5,a5,0x10
800023ec:	00d7e6b3          	or	a3,a5,a3
800023f0:	03c58733          	mul	a4,a1,t3
800023f4:	000e0793          	mv	a5,t3
800023f8:	00e6fe63          	bleu	a4,a3,80002414 <__divdi3+0xdc>
800023fc:	010686b3          	add	a3,a3,a6
80002400:	fffe0793          	addi	a5,t3,-1
80002404:	0106e863          	bltu	a3,a6,80002414 <__divdi3+0xdc>
80002408:	00e6f663          	bleu	a4,a3,80002414 <__divdi3+0xdc>
8000240c:	ffee0793          	addi	a5,t3,-2
80002410:	010686b3          	add	a3,a3,a6
80002414:	40e686b3          	sub	a3,a3,a4
80002418:	02c6f733          	remu	a4,a3,a2
8000241c:	01089893          	slli	a7,a7,0x10
80002420:	0108d893          	srli	a7,a7,0x10
80002424:	02c6d6b3          	divu	a3,a3,a2
80002428:	01071713          	slli	a4,a4,0x10
8000242c:	011768b3          	or	a7,a4,a7
80002430:	02d585b3          	mul	a1,a1,a3
80002434:	00068513          	mv	a0,a3
80002438:	00b8fc63          	bleu	a1,a7,80002450 <__divdi3+0x118>
8000243c:	011808b3          	add	a7,a6,a7
80002440:	fff68513          	addi	a0,a3,-1
80002444:	0108e663          	bltu	a7,a6,80002450 <__divdi3+0x118>
80002448:	00b8f463          	bleu	a1,a7,80002450 <__divdi3+0x118>
8000244c:	ffe68513          	addi	a0,a3,-2
80002450:	01079793          	slli	a5,a5,0x10
80002454:	00a7e7b3          	or	a5,a5,a0
80002458:	00000e13          	li	t3,0
8000245c:	0e40006f          	j	80002540 <__divdi3+0x208>
80002460:	010007b7          	lui	a5,0x1000
80002464:	01000e93          	li	t4,16
80002468:	f2f66ce3          	bltu	a2,a5,800023a0 <__divdi3+0x68>
8000246c:	01800e93          	li	t4,24
80002470:	f31ff06f          	j	800023a0 <__divdi3+0x68>
80002474:	00061663          	bnez	a2,80002480 <__divdi3+0x148>
80002478:	00100813          	li	a6,1
8000247c:	02e85833          	divu	a6,a6,a4
80002480:	000107b7          	lui	a5,0x10
80002484:	0cf87e63          	bleu	a5,a6,80002560 <__divdi3+0x228>
80002488:	0ff00793          	li	a5,255
8000248c:	0107f463          	bleu	a6,a5,80002494 <__divdi3+0x15c>
80002490:	00800713          	li	a4,8
80002494:	00e857b3          	srl	a5,a6,a4
80002498:	00f686b3          	add	a3,a3,a5
8000249c:	0006c783          	lbu	a5,0(a3)
800024a0:	02000693          	li	a3,32
800024a4:	00e787b3          	add	a5,a5,a4
800024a8:	40f686b3          	sub	a3,a3,a5
800024ac:	0c069463          	bnez	a3,80002574 <__divdi3+0x23c>
800024b0:	41058733          	sub	a4,a1,a6
800024b4:	00100e13          	li	t3,1
800024b8:	01085613          	srli	a2,a6,0x10
800024bc:	01081593          	slli	a1,a6,0x10
800024c0:	0105d593          	srli	a1,a1,0x10
800024c4:	0108d693          	srli	a3,a7,0x10
800024c8:	02c777b3          	remu	a5,a4,a2
800024cc:	02c75733          	divu	a4,a4,a2
800024d0:	01079793          	slli	a5,a5,0x10
800024d4:	00d7e6b3          	or	a3,a5,a3
800024d8:	02e58533          	mul	a0,a1,a4
800024dc:	00070793          	mv	a5,a4
800024e0:	00a6fe63          	bleu	a0,a3,800024fc <__divdi3+0x1c4>
800024e4:	010686b3          	add	a3,a3,a6
800024e8:	fff70793          	addi	a5,a4,-1
800024ec:	0106e863          	bltu	a3,a6,800024fc <__divdi3+0x1c4>
800024f0:	00a6f663          	bleu	a0,a3,800024fc <__divdi3+0x1c4>
800024f4:	ffe70793          	addi	a5,a4,-2
800024f8:	010686b3          	add	a3,a3,a6
800024fc:	40a686b3          	sub	a3,a3,a0
80002500:	02c6f733          	remu	a4,a3,a2
80002504:	01089893          	slli	a7,a7,0x10
80002508:	0108d893          	srli	a7,a7,0x10
8000250c:	02c6d6b3          	divu	a3,a3,a2
80002510:	01071713          	slli	a4,a4,0x10
80002514:	011768b3          	or	a7,a4,a7
80002518:	02d585b3          	mul	a1,a1,a3
8000251c:	00068513          	mv	a0,a3
80002520:	00b8fc63          	bleu	a1,a7,80002538 <__divdi3+0x200>
80002524:	011808b3          	add	a7,a6,a7
80002528:	fff68513          	addi	a0,a3,-1
8000252c:	0108e663          	bltu	a7,a6,80002538 <__divdi3+0x200>
80002530:	00b8f463          	bleu	a1,a7,80002538 <__divdi3+0x200>
80002534:	ffe68513          	addi	a0,a3,-2
80002538:	01079793          	slli	a5,a5,0x10
8000253c:	00a7e7b3          	or	a5,a5,a0
80002540:	00078513          	mv	a0,a5
80002544:	000e0593          	mv	a1,t3
80002548:	00030a63          	beqz	t1,8000255c <__divdi3+0x224>
8000254c:	40f00533          	neg	a0,a5
80002550:	00a037b3          	snez	a5,a0
80002554:	41c005b3          	neg	a1,t3
80002558:	40f585b3          	sub	a1,a1,a5
8000255c:	00008067          	ret
80002560:	010007b7          	lui	a5,0x1000
80002564:	01000713          	li	a4,16
80002568:	f2f866e3          	bltu	a6,a5,80002494 <__divdi3+0x15c>
8000256c:	01800713          	li	a4,24
80002570:	f25ff06f          	j	80002494 <__divdi3+0x15c>
80002574:	00d81833          	sll	a6,a6,a3
80002578:	00f5deb3          	srl	t4,a1,a5
8000257c:	00d518b3          	sll	a7,a0,a3
80002580:	00f557b3          	srl	a5,a0,a5
80002584:	01085513          	srli	a0,a6,0x10
80002588:	00d59733          	sll	a4,a1,a3
8000258c:	02aed5b3          	divu	a1,t4,a0
80002590:	00e7e633          	or	a2,a5,a4
80002594:	01081713          	slli	a4,a6,0x10
80002598:	01075713          	srli	a4,a4,0x10
8000259c:	01065793          	srli	a5,a2,0x10
800025a0:	02aef6b3          	remu	a3,t4,a0
800025a4:	00058e13          	mv	t3,a1
800025a8:	02b70eb3          	mul	t4,a4,a1
800025ac:	01069693          	slli	a3,a3,0x10
800025b0:	00f6e7b3          	or	a5,a3,a5
800025b4:	01d7fe63          	bleu	t4,a5,800025d0 <__divdi3+0x298>
800025b8:	010787b3          	add	a5,a5,a6
800025bc:	fff58e13          	addi	t3,a1,-1 # 1ffffff <__stack_size+0x1feffff>
800025c0:	0107e863          	bltu	a5,a6,800025d0 <__divdi3+0x298>
800025c4:	01d7f663          	bleu	t4,a5,800025d0 <__divdi3+0x298>
800025c8:	ffe58e13          	addi	t3,a1,-2
800025cc:	010787b3          	add	a5,a5,a6
800025d0:	41d787b3          	sub	a5,a5,t4
800025d4:	02a7f5b3          	remu	a1,a5,a0
800025d8:	01061613          	slli	a2,a2,0x10
800025dc:	01065613          	srli	a2,a2,0x10
800025e0:	02a7d7b3          	divu	a5,a5,a0
800025e4:	01059593          	slli	a1,a1,0x10
800025e8:	00c5e5b3          	or	a1,a1,a2
800025ec:	02f70733          	mul	a4,a4,a5
800025f0:	00078693          	mv	a3,a5
800025f4:	00e5fe63          	bleu	a4,a1,80002610 <__divdi3+0x2d8>
800025f8:	010585b3          	add	a1,a1,a6
800025fc:	fff78693          	addi	a3,a5,-1 # ffffff <__stack_size+0xfeffff>
80002600:	0105e863          	bltu	a1,a6,80002610 <__divdi3+0x2d8>
80002604:	00e5f663          	bleu	a4,a1,80002610 <__divdi3+0x2d8>
80002608:	ffe78693          	addi	a3,a5,-2
8000260c:	010585b3          	add	a1,a1,a6
80002610:	010e1e13          	slli	t3,t3,0x10
80002614:	40e58733          	sub	a4,a1,a4
80002618:	00de6e33          	or	t3,t3,a3
8000261c:	e9dff06f          	j	800024b8 <__divdi3+0x180>
80002620:	18d5e663          	bltu	a1,a3,800027ac <__divdi3+0x474>
80002624:	000107b7          	lui	a5,0x10
80002628:	04f6f463          	bleu	a5,a3,80002670 <__divdi3+0x338>
8000262c:	0ff00813          	li	a6,255
80002630:	00d838b3          	sltu	a7,a6,a3
80002634:	00389893          	slli	a7,a7,0x3
80002638:	8001c737          	lui	a4,0x8001c
8000263c:	0116d7b3          	srl	a5,a3,a7
80002640:	15870713          	addi	a4,a4,344 # 8001c158 <__stack_top+0xcbb1c158>
80002644:	00e787b3          	add	a5,a5,a4
80002648:	0007c803          	lbu	a6,0(a5) # 10000 <__stack_size>
8000264c:	02000e13          	li	t3,32
80002650:	01180833          	add	a6,a6,a7
80002654:	410e0e33          	sub	t3,t3,a6
80002658:	020e1663          	bnez	t3,80002684 <__divdi3+0x34c>
8000265c:	00100793          	li	a5,1
80002660:	eeb6e0e3          	bltu	a3,a1,80002540 <__divdi3+0x208>
80002664:	00c53633          	sltu	a2,a0,a2
80002668:	00164793          	xori	a5,a2,1
8000266c:	ed5ff06f          	j	80002540 <__divdi3+0x208>
80002670:	010007b7          	lui	a5,0x1000
80002674:	01000893          	li	a7,16
80002678:	fcf6e0e3          	bltu	a3,a5,80002638 <__divdi3+0x300>
8000267c:	01800893          	li	a7,24
80002680:	fb9ff06f          	j	80002638 <__divdi3+0x300>
80002684:	010657b3          	srl	a5,a2,a6
80002688:	01c696b3          	sll	a3,a3,t3
8000268c:	00d7e6b3          	or	a3,a5,a3
80002690:	0106df13          	srli	t5,a3,0x10
80002694:	0105d7b3          	srl	a5,a1,a6
80002698:	03e7f8b3          	remu	a7,a5,t5
8000269c:	01069e93          	slli	t4,a3,0x10
800026a0:	010ede93          	srli	t4,t4,0x10
800026a4:	01c59733          	sll	a4,a1,t3
800026a8:	01055833          	srl	a6,a0,a6
800026ac:	00e86733          	or	a4,a6,a4
800026b0:	01075813          	srli	a6,a4,0x10
800026b4:	01c61633          	sll	a2,a2,t3
800026b8:	03e7d7b3          	divu	a5,a5,t5
800026bc:	01089893          	slli	a7,a7,0x10
800026c0:	0108e833          	or	a6,a7,a6
800026c4:	02fe8fb3          	mul	t6,t4,a5
800026c8:	00078593          	mv	a1,a5
800026cc:	01f87e63          	bleu	t6,a6,800026e8 <__divdi3+0x3b0>
800026d0:	00d80833          	add	a6,a6,a3
800026d4:	fff78593          	addi	a1,a5,-1 # ffffff <__stack_size+0xfeffff>
800026d8:	00d86863          	bltu	a6,a3,800026e8 <__divdi3+0x3b0>
800026dc:	01f87663          	bleu	t6,a6,800026e8 <__divdi3+0x3b0>
800026e0:	ffe78593          	addi	a1,a5,-2
800026e4:	00d80833          	add	a6,a6,a3
800026e8:	41f80833          	sub	a6,a6,t6
800026ec:	03e878b3          	remu	a7,a6,t5
800026f0:	01071713          	slli	a4,a4,0x10
800026f4:	01075713          	srli	a4,a4,0x10
800026f8:	03e85833          	divu	a6,a6,t5
800026fc:	01089893          	slli	a7,a7,0x10
80002700:	00e8e733          	or	a4,a7,a4
80002704:	030e8eb3          	mul	t4,t4,a6
80002708:	00080793          	mv	a5,a6
8000270c:	01d77e63          	bleu	t4,a4,80002728 <__divdi3+0x3f0>
80002710:	00d70733          	add	a4,a4,a3
80002714:	fff80793          	addi	a5,a6,-1
80002718:	00d76863          	bltu	a4,a3,80002728 <__divdi3+0x3f0>
8000271c:	01d77663          	bleu	t4,a4,80002728 <__divdi3+0x3f0>
80002720:	ffe80793          	addi	a5,a6,-2
80002724:	00d70733          	add	a4,a4,a3
80002728:	01059593          	slli	a1,a1,0x10
8000272c:	00010f37          	lui	t5,0x10
80002730:	00f5e7b3          	or	a5,a1,a5
80002734:	ffff0593          	addi	a1,t5,-1 # ffff <__stack_size-0x1>
80002738:	00b7f8b3          	and	a7,a5,a1
8000273c:	0107d813          	srli	a6,a5,0x10
80002740:	00b675b3          	and	a1,a2,a1
80002744:	01065613          	srli	a2,a2,0x10
80002748:	41d70733          	sub	a4,a4,t4
8000274c:	02b88eb3          	mul	t4,a7,a1
80002750:	02b805b3          	mul	a1,a6,a1
80002754:	010ed693          	srli	a3,t4,0x10
80002758:	02c888b3          	mul	a7,a7,a2
8000275c:	00b888b3          	add	a7,a7,a1
80002760:	011686b3          	add	a3,a3,a7
80002764:	02c80833          	mul	a6,a6,a2
80002768:	00b6f463          	bleu	a1,a3,80002770 <__divdi3+0x438>
8000276c:	01e80833          	add	a6,a6,t5
80002770:	0106d613          	srli	a2,a3,0x10
80002774:	01060833          	add	a6,a2,a6
80002778:	03076663          	bltu	a4,a6,800027a4 <__divdi3+0x46c>
8000277c:	cd071ee3          	bne	a4,a6,80002458 <__divdi3+0x120>
80002780:	00010737          	lui	a4,0x10
80002784:	fff70713          	addi	a4,a4,-1 # ffff <__stack_size-0x1>
80002788:	00e6f6b3          	and	a3,a3,a4
8000278c:	01069693          	slli	a3,a3,0x10
80002790:	00eefeb3          	and	t4,t4,a4
80002794:	01c51533          	sll	a0,a0,t3
80002798:	01d686b3          	add	a3,a3,t4
8000279c:	00000e13          	li	t3,0
800027a0:	dad570e3          	bleu	a3,a0,80002540 <__divdi3+0x208>
800027a4:	fff78793          	addi	a5,a5,-1
800027a8:	cb1ff06f          	j	80002458 <__divdi3+0x120>
800027ac:	00000e13          	li	t3,0
800027b0:	00000793          	li	a5,0
800027b4:	d8dff06f          	j	80002540 <__divdi3+0x208>

800027b8 <__adddf3>:
800027b8:	00100837          	lui	a6,0x100
800027bc:	fff80813          	addi	a6,a6,-1 # fffff <__stack_size+0xeffff>
800027c0:	00b878b3          	and	a7,a6,a1
800027c4:	00389893          	slli	a7,a7,0x3
800027c8:	01d55793          	srli	a5,a0,0x1d
800027cc:	fe010113          	addi	sp,sp,-32
800027d0:	0145d713          	srli	a4,a1,0x14
800027d4:	00d87833          	and	a6,a6,a3
800027d8:	0117e7b3          	or	a5,a5,a7
800027dc:	0146d893          	srli	a7,a3,0x14
800027e0:	00381813          	slli	a6,a6,0x3
800027e4:	00912a23          	sw	s1,20(sp)
800027e8:	01212823          	sw	s2,16(sp)
800027ec:	7ff77493          	andi	s1,a4,2047
800027f0:	7ff8f893          	andi	a7,a7,2047
800027f4:	01d65713          	srli	a4,a2,0x1d
800027f8:	00112e23          	sw	ra,28(sp)
800027fc:	00812c23          	sw	s0,24(sp)
80002800:	01312623          	sw	s3,12(sp)
80002804:	01f5d913          	srli	s2,a1,0x1f
80002808:	01f6d693          	srli	a3,a3,0x1f
8000280c:	01076733          	or	a4,a4,a6
80002810:	00351513          	slli	a0,a0,0x3
80002814:	00361613          	slli	a2,a2,0x3
80002818:	41148833          	sub	a6,s1,a7
8000281c:	2cd91463          	bne	s2,a3,80002ae4 <__adddf3+0x32c>
80002820:	11005e63          	blez	a6,8000293c <__adddf3+0x184>
80002824:	04089063          	bnez	a7,80002864 <__adddf3+0xac>
80002828:	00c766b3          	or	a3,a4,a2
8000282c:	70068063          	beqz	a3,80002f2c <__adddf3+0x774>
80002830:	fff80593          	addi	a1,a6,-1
80002834:	02059063          	bnez	a1,80002854 <__adddf3+0x9c>
80002838:	00c50633          	add	a2,a0,a2
8000283c:	00a63533          	sltu	a0,a2,a0
80002840:	00e787b3          	add	a5,a5,a4
80002844:	00a787b3          	add	a5,a5,a0
80002848:	00060513          	mv	a0,a2
8000284c:	00100493          	li	s1,1
80002850:	0700006f          	j	800028c0 <__adddf3+0x108>
80002854:	7ff00693          	li	a3,2047
80002858:	02d81063          	bne	a6,a3,80002878 <__adddf3+0xc0>
8000285c:	7ff00493          	li	s1,2047
80002860:	20c0006f          	j	80002a6c <__adddf3+0x2b4>
80002864:	7ff00693          	li	a3,2047
80002868:	20d48263          	beq	s1,a3,80002a6c <__adddf3+0x2b4>
8000286c:	008006b7          	lui	a3,0x800
80002870:	00d76733          	or	a4,a4,a3
80002874:	00080593          	mv	a1,a6
80002878:	03800693          	li	a3,56
8000287c:	0ab6ca63          	blt	a3,a1,80002930 <__adddf3+0x178>
80002880:	01f00693          	li	a3,31
80002884:	06b6cc63          	blt	a3,a1,800028fc <__adddf3+0x144>
80002888:	02000813          	li	a6,32
8000288c:	40b80833          	sub	a6,a6,a1
80002890:	010716b3          	sll	a3,a4,a6
80002894:	00b658b3          	srl	a7,a2,a1
80002898:	01061633          	sll	a2,a2,a6
8000289c:	0116e6b3          	or	a3,a3,a7
800028a0:	00c03633          	snez	a2,a2
800028a4:	00c6e633          	or	a2,a3,a2
800028a8:	00b75733          	srl	a4,a4,a1
800028ac:	00a60633          	add	a2,a2,a0
800028b0:	00f70733          	add	a4,a4,a5
800028b4:	00a637b3          	sltu	a5,a2,a0
800028b8:	00f707b3          	add	a5,a4,a5
800028bc:	00060513          	mv	a0,a2
800028c0:	00879713          	slli	a4,a5,0x8
800028c4:	1a075463          	bgez	a4,80002a6c <__adddf3+0x2b4>
800028c8:	00148493          	addi	s1,s1,1
800028cc:	7ff00713          	li	a4,2047
800028d0:	5ce48463          	beq	s1,a4,80002e98 <__adddf3+0x6e0>
800028d4:	ff8006b7          	lui	a3,0xff800
800028d8:	fff68693          	addi	a3,a3,-1 # ff7fffff <__stack_top+0x4b2fffff>
800028dc:	00d7f6b3          	and	a3,a5,a3
800028e0:	00155593          	srli	a1,a0,0x1
800028e4:	00157513          	andi	a0,a0,1
800028e8:	01f69793          	slli	a5,a3,0x1f
800028ec:	00a5e533          	or	a0,a1,a0
800028f0:	00a7e533          	or	a0,a5,a0
800028f4:	0016d793          	srli	a5,a3,0x1
800028f8:	1740006f          	j	80002a6c <__adddf3+0x2b4>
800028fc:	fe058693          	addi	a3,a1,-32
80002900:	02000893          	li	a7,32
80002904:	00d756b3          	srl	a3,a4,a3
80002908:	00000813          	li	a6,0
8000290c:	01158863          	beq	a1,a7,8000291c <__adddf3+0x164>
80002910:	04000813          	li	a6,64
80002914:	40b805b3          	sub	a1,a6,a1
80002918:	00b71833          	sll	a6,a4,a1
8000291c:	00c86633          	or	a2,a6,a2
80002920:	00c03633          	snez	a2,a2
80002924:	00c6e633          	or	a2,a3,a2
80002928:	00000713          	li	a4,0
8000292c:	f81ff06f          	j	800028ac <__adddf3+0xf4>
80002930:	00c76633          	or	a2,a4,a2
80002934:	00c03633          	snez	a2,a2
80002938:	ff1ff06f          	j	80002928 <__adddf3+0x170>
8000293c:	0e080263          	beqz	a6,80002a20 <__adddf3+0x268>
80002940:	409885b3          	sub	a1,a7,s1
80002944:	02049e63          	bnez	s1,80002980 <__adddf3+0x1c8>
80002948:	00a7e6b3          	or	a3,a5,a0
8000294c:	52068663          	beqz	a3,80002e78 <__adddf3+0x6c0>
80002950:	fff58693          	addi	a3,a1,-1
80002954:	00069c63          	bnez	a3,8000296c <__adddf3+0x1b4>
80002958:	00c50533          	add	a0,a0,a2
8000295c:	00e787b3          	add	a5,a5,a4
80002960:	00c53633          	sltu	a2,a0,a2
80002964:	00c787b3          	add	a5,a5,a2
80002968:	ee5ff06f          	j	8000284c <__adddf3+0x94>
8000296c:	7ff00813          	li	a6,2047
80002970:	03059263          	bne	a1,a6,80002994 <__adddf3+0x1dc>
80002974:	00070793          	mv	a5,a4
80002978:	00060513          	mv	a0,a2
8000297c:	ee1ff06f          	j	8000285c <__adddf3+0xa4>
80002980:	7ff00693          	li	a3,2047
80002984:	fed888e3          	beq	a7,a3,80002974 <__adddf3+0x1bc>
80002988:	008006b7          	lui	a3,0x800
8000298c:	00d7e7b3          	or	a5,a5,a3
80002990:	00058693          	mv	a3,a1
80002994:	03800593          	li	a1,56
80002998:	06d5ce63          	blt	a1,a3,80002a14 <__adddf3+0x25c>
8000299c:	01f00593          	li	a1,31
800029a0:	04d5c063          	blt	a1,a3,800029e0 <__adddf3+0x228>
800029a4:	02000813          	li	a6,32
800029a8:	40d80833          	sub	a6,a6,a3
800029ac:	00d55333          	srl	t1,a0,a3
800029b0:	010795b3          	sll	a1,a5,a6
800029b4:	01051533          	sll	a0,a0,a6
800029b8:	0065e5b3          	or	a1,a1,t1
800029bc:	00a03533          	snez	a0,a0
800029c0:	00a5e533          	or	a0,a1,a0
800029c4:	00d7d6b3          	srl	a3,a5,a3
800029c8:	00c50533          	add	a0,a0,a2
800029cc:	00e687b3          	add	a5,a3,a4
800029d0:	00c53633          	sltu	a2,a0,a2
800029d4:	00c787b3          	add	a5,a5,a2
800029d8:	00088493          	mv	s1,a7
800029dc:	ee5ff06f          	j	800028c0 <__adddf3+0x108>
800029e0:	fe068593          	addi	a1,a3,-32 # 7fffe0 <__stack_size+0x7effe0>
800029e4:	02000313          	li	t1,32
800029e8:	00b7d5b3          	srl	a1,a5,a1
800029ec:	00000813          	li	a6,0
800029f0:	00668863          	beq	a3,t1,80002a00 <__adddf3+0x248>
800029f4:	04000813          	li	a6,64
800029f8:	40d806b3          	sub	a3,a6,a3
800029fc:	00d79833          	sll	a6,a5,a3
80002a00:	00a86533          	or	a0,a6,a0
80002a04:	00a03533          	snez	a0,a0
80002a08:	00a5e533          	or	a0,a1,a0
80002a0c:	00000693          	li	a3,0
80002a10:	fb9ff06f          	j	800029c8 <__adddf3+0x210>
80002a14:	00a7e533          	or	a0,a5,a0
80002a18:	00a03533          	snez	a0,a0
80002a1c:	ff1ff06f          	j	80002a0c <__adddf3+0x254>
80002a20:	00148693          	addi	a3,s1,1
80002a24:	7fe6f593          	andi	a1,a3,2046
80002a28:	08059663          	bnez	a1,80002ab4 <__adddf3+0x2fc>
80002a2c:	00a7e6b3          	or	a3,a5,a0
80002a30:	06049263          	bnez	s1,80002a94 <__adddf3+0x2dc>
80002a34:	44068a63          	beqz	a3,80002e88 <__adddf3+0x6d0>
80002a38:	00c766b3          	or	a3,a4,a2
80002a3c:	02068863          	beqz	a3,80002a6c <__adddf3+0x2b4>
80002a40:	00c50633          	add	a2,a0,a2
80002a44:	00e787b3          	add	a5,a5,a4
80002a48:	00a63533          	sltu	a0,a2,a0
80002a4c:	00a787b3          	add	a5,a5,a0
80002a50:	00879713          	slli	a4,a5,0x8
80002a54:	00060513          	mv	a0,a2
80002a58:	00075a63          	bgez	a4,80002a6c <__adddf3+0x2b4>
80002a5c:	ff800737          	lui	a4,0xff800
80002a60:	fff70713          	addi	a4,a4,-1 # ff7fffff <__stack_top+0x4b2fffff>
80002a64:	00e7f7b3          	and	a5,a5,a4
80002a68:	00100493          	li	s1,1
80002a6c:	00757713          	andi	a4,a0,7
80002a70:	42070863          	beqz	a4,80002ea0 <__adddf3+0x6e8>
80002a74:	00f57713          	andi	a4,a0,15
80002a78:	00400693          	li	a3,4
80002a7c:	42d70263          	beq	a4,a3,80002ea0 <__adddf3+0x6e8>
80002a80:	00450693          	addi	a3,a0,4
80002a84:	00a6b533          	sltu	a0,a3,a0
80002a88:	00a787b3          	add	a5,a5,a0
80002a8c:	00068513          	mv	a0,a3
80002a90:	4100006f          	j	80002ea0 <__adddf3+0x6e8>
80002a94:	ee0680e3          	beqz	a3,80002974 <__adddf3+0x1bc>
80002a98:	00c76633          	or	a2,a4,a2
80002a9c:	dc0600e3          	beqz	a2,8000285c <__adddf3+0xa4>
80002aa0:	00000913          	li	s2,0
80002aa4:	004007b7          	lui	a5,0x400
80002aa8:	00000513          	li	a0,0
80002aac:	7ff00493          	li	s1,2047
80002ab0:	3f00006f          	j	80002ea0 <__adddf3+0x6e8>
80002ab4:	7ff00593          	li	a1,2047
80002ab8:	3cb68e63          	beq	a3,a1,80002e94 <__adddf3+0x6dc>
80002abc:	00c50633          	add	a2,a0,a2
80002ac0:	00e78733          	add	a4,a5,a4
80002ac4:	00a637b3          	sltu	a5,a2,a0
80002ac8:	00f70733          	add	a4,a4,a5
80002acc:	01f71513          	slli	a0,a4,0x1f
80002ad0:	00165613          	srli	a2,a2,0x1
80002ad4:	00c56533          	or	a0,a0,a2
80002ad8:	00175793          	srli	a5,a4,0x1
80002adc:	00068493          	mv	s1,a3
80002ae0:	f8dff06f          	j	80002a6c <__adddf3+0x2b4>
80002ae4:	0f005c63          	blez	a6,80002bdc <__adddf3+0x424>
80002ae8:	08089e63          	bnez	a7,80002b84 <__adddf3+0x3cc>
80002aec:	00c766b3          	or	a3,a4,a2
80002af0:	42068e63          	beqz	a3,80002f2c <__adddf3+0x774>
80002af4:	fff80593          	addi	a1,a6,-1
80002af8:	02059063          	bnez	a1,80002b18 <__adddf3+0x360>
80002afc:	40c50633          	sub	a2,a0,a2
80002b00:	00c53533          	sltu	a0,a0,a2
80002b04:	40e787b3          	sub	a5,a5,a4
80002b08:	40a787b3          	sub	a5,a5,a0
80002b0c:	00060513          	mv	a0,a2
80002b10:	00100493          	li	s1,1
80002b14:	0540006f          	j	80002b68 <__adddf3+0x3b0>
80002b18:	7ff00693          	li	a3,2047
80002b1c:	d4d800e3          	beq	a6,a3,8000285c <__adddf3+0xa4>
80002b20:	03800693          	li	a3,56
80002b24:	0ab6c663          	blt	a3,a1,80002bd0 <__adddf3+0x418>
80002b28:	01f00693          	li	a3,31
80002b2c:	06b6c863          	blt	a3,a1,80002b9c <__adddf3+0x3e4>
80002b30:	02000813          	li	a6,32
80002b34:	40b80833          	sub	a6,a6,a1
80002b38:	010716b3          	sll	a3,a4,a6
80002b3c:	00b658b3          	srl	a7,a2,a1
80002b40:	01061633          	sll	a2,a2,a6
80002b44:	0116e6b3          	or	a3,a3,a7
80002b48:	00c03633          	snez	a2,a2
80002b4c:	00c6e633          	or	a2,a3,a2
80002b50:	00b75733          	srl	a4,a4,a1
80002b54:	40c50633          	sub	a2,a0,a2
80002b58:	40e78733          	sub	a4,a5,a4
80002b5c:	00c537b3          	sltu	a5,a0,a2
80002b60:	40f707b3          	sub	a5,a4,a5
80002b64:	00060513          	mv	a0,a2
80002b68:	00879713          	slli	a4,a5,0x8
80002b6c:	f00750e3          	bgez	a4,80002a6c <__adddf3+0x2b4>
80002b70:	00800437          	lui	s0,0x800
80002b74:	fff40413          	addi	s0,s0,-1 # 7fffff <__stack_size+0x7effff>
80002b78:	0087f433          	and	s0,a5,s0
80002b7c:	00050993          	mv	s3,a0
80002b80:	20c0006f          	j	80002d8c <__adddf3+0x5d4>
80002b84:	7ff00693          	li	a3,2047
80002b88:	eed482e3          	beq	s1,a3,80002a6c <__adddf3+0x2b4>
80002b8c:	008006b7          	lui	a3,0x800
80002b90:	00d76733          	or	a4,a4,a3
80002b94:	00080593          	mv	a1,a6
80002b98:	f89ff06f          	j	80002b20 <__adddf3+0x368>
80002b9c:	fe058693          	addi	a3,a1,-32
80002ba0:	02000893          	li	a7,32
80002ba4:	00d756b3          	srl	a3,a4,a3
80002ba8:	00000813          	li	a6,0
80002bac:	01158863          	beq	a1,a7,80002bbc <__adddf3+0x404>
80002bb0:	04000813          	li	a6,64
80002bb4:	40b805b3          	sub	a1,a6,a1
80002bb8:	00b71833          	sll	a6,a4,a1
80002bbc:	00c86633          	or	a2,a6,a2
80002bc0:	00c03633          	snez	a2,a2
80002bc4:	00c6e633          	or	a2,a3,a2
80002bc8:	00000713          	li	a4,0
80002bcc:	f89ff06f          	j	80002b54 <__adddf3+0x39c>
80002bd0:	00c76633          	or	a2,a4,a2
80002bd4:	00c03633          	snez	a2,a2
80002bd8:	ff1ff06f          	j	80002bc8 <__adddf3+0x410>
80002bdc:	0e080863          	beqz	a6,80002ccc <__adddf3+0x514>
80002be0:	40988833          	sub	a6,a7,s1
80002be4:	04049263          	bnez	s1,80002c28 <__adddf3+0x470>
80002be8:	00a7e5b3          	or	a1,a5,a0
80002bec:	34058463          	beqz	a1,80002f34 <__adddf3+0x77c>
80002bf0:	fff80593          	addi	a1,a6,-1
80002bf4:	00059e63          	bnez	a1,80002c10 <__adddf3+0x458>
80002bf8:	40a60533          	sub	a0,a2,a0
80002bfc:	40f707b3          	sub	a5,a4,a5
80002c00:	00a63633          	sltu	a2,a2,a0
80002c04:	40c787b3          	sub	a5,a5,a2
80002c08:	00068913          	mv	s2,a3
80002c0c:	f05ff06f          	j	80002b10 <__adddf3+0x358>
80002c10:	7ff00313          	li	t1,2047
80002c14:	02681463          	bne	a6,t1,80002c3c <__adddf3+0x484>
80002c18:	00070793          	mv	a5,a4
80002c1c:	00060513          	mv	a0,a2
80002c20:	7ff00493          	li	s1,2047
80002c24:	0d00006f          	j	80002cf4 <__adddf3+0x53c>
80002c28:	7ff00593          	li	a1,2047
80002c2c:	feb886e3          	beq	a7,a1,80002c18 <__adddf3+0x460>
80002c30:	008005b7          	lui	a1,0x800
80002c34:	00b7e7b3          	or	a5,a5,a1
80002c38:	00080593          	mv	a1,a6
80002c3c:	03800813          	li	a6,56
80002c40:	08b84063          	blt	a6,a1,80002cc0 <__adddf3+0x508>
80002c44:	01f00813          	li	a6,31
80002c48:	04b84263          	blt	a6,a1,80002c8c <__adddf3+0x4d4>
80002c4c:	02000313          	li	t1,32
80002c50:	40b30333          	sub	t1,t1,a1
80002c54:	00b55e33          	srl	t3,a0,a1
80002c58:	00679833          	sll	a6,a5,t1
80002c5c:	00651533          	sll	a0,a0,t1
80002c60:	01c86833          	or	a6,a6,t3
80002c64:	00a03533          	snez	a0,a0
80002c68:	00a86533          	or	a0,a6,a0
80002c6c:	00b7d5b3          	srl	a1,a5,a1
80002c70:	40a60533          	sub	a0,a2,a0
80002c74:	40b707b3          	sub	a5,a4,a1
80002c78:	00a63633          	sltu	a2,a2,a0
80002c7c:	40c787b3          	sub	a5,a5,a2
80002c80:	00088493          	mv	s1,a7
80002c84:	00068913          	mv	s2,a3
80002c88:	ee1ff06f          	j	80002b68 <__adddf3+0x3b0>
80002c8c:	fe058813          	addi	a6,a1,-32 # 7fffe0 <__stack_size+0x7effe0>
80002c90:	02000e13          	li	t3,32
80002c94:	0107d833          	srl	a6,a5,a6
80002c98:	00000313          	li	t1,0
80002c9c:	01c58863          	beq	a1,t3,80002cac <__adddf3+0x4f4>
80002ca0:	04000313          	li	t1,64
80002ca4:	40b305b3          	sub	a1,t1,a1
80002ca8:	00b79333          	sll	t1,a5,a1
80002cac:	00a36533          	or	a0,t1,a0
80002cb0:	00a03533          	snez	a0,a0
80002cb4:	00a86533          	or	a0,a6,a0
80002cb8:	00000593          	li	a1,0
80002cbc:	fb5ff06f          	j	80002c70 <__adddf3+0x4b8>
80002cc0:	00a7e533          	or	a0,a5,a0
80002cc4:	00a03533          	snez	a0,a0
80002cc8:	ff1ff06f          	j	80002cb8 <__adddf3+0x500>
80002ccc:	00148593          	addi	a1,s1,1
80002cd0:	7fe5f593          	andi	a1,a1,2046
80002cd4:	08059663          	bnez	a1,80002d60 <__adddf3+0x5a8>
80002cd8:	00a7e833          	or	a6,a5,a0
80002cdc:	00c765b3          	or	a1,a4,a2
80002ce0:	06049063          	bnez	s1,80002d40 <__adddf3+0x588>
80002ce4:	00081c63          	bnez	a6,80002cfc <__adddf3+0x544>
80002ce8:	24058e63          	beqz	a1,80002f44 <__adddf3+0x78c>
80002cec:	00070793          	mv	a5,a4
80002cf0:	00060513          	mv	a0,a2
80002cf4:	00068913          	mv	s2,a3
80002cf8:	d75ff06f          	j	80002a6c <__adddf3+0x2b4>
80002cfc:	d60588e3          	beqz	a1,80002a6c <__adddf3+0x2b4>
80002d00:	40c50833          	sub	a6,a0,a2
80002d04:	010538b3          	sltu	a7,a0,a6
80002d08:	40e785b3          	sub	a1,a5,a4
80002d0c:	411585b3          	sub	a1,a1,a7
80002d10:	00859893          	slli	a7,a1,0x8
80002d14:	0008dc63          	bgez	a7,80002d2c <__adddf3+0x574>
80002d18:	40a60533          	sub	a0,a2,a0
80002d1c:	40f707b3          	sub	a5,a4,a5
80002d20:	00a63633          	sltu	a2,a2,a0
80002d24:	40c787b3          	sub	a5,a5,a2
80002d28:	fcdff06f          	j	80002cf4 <__adddf3+0x53c>
80002d2c:	00b86533          	or	a0,a6,a1
80002d30:	22050263          	beqz	a0,80002f54 <__adddf3+0x79c>
80002d34:	00058793          	mv	a5,a1
80002d38:	00080513          	mv	a0,a6
80002d3c:	d31ff06f          	j	80002a6c <__adddf3+0x2b4>
80002d40:	00081c63          	bnez	a6,80002d58 <__adddf3+0x5a0>
80002d44:	20058c63          	beqz	a1,80002f5c <__adddf3+0x7a4>
80002d48:	00070793          	mv	a5,a4
80002d4c:	00060513          	mv	a0,a2
80002d50:	00068913          	mv	s2,a3
80002d54:	b09ff06f          	j	8000285c <__adddf3+0xa4>
80002d58:	b00582e3          	beqz	a1,8000285c <__adddf3+0xa4>
80002d5c:	d45ff06f          	j	80002aa0 <__adddf3+0x2e8>
80002d60:	40c509b3          	sub	s3,a0,a2
80002d64:	013535b3          	sltu	a1,a0,s3
80002d68:	40e78433          	sub	s0,a5,a4
80002d6c:	40b40433          	sub	s0,s0,a1
80002d70:	00841593          	slli	a1,s0,0x8
80002d74:	0805d463          	bgez	a1,80002dfc <__adddf3+0x644>
80002d78:	40a609b3          	sub	s3,a2,a0
80002d7c:	40f707b3          	sub	a5,a4,a5
80002d80:	01363633          	sltu	a2,a2,s3
80002d84:	40c78433          	sub	s0,a5,a2
80002d88:	00068913          	mv	s2,a3
80002d8c:	08040263          	beqz	s0,80002e10 <__adddf3+0x658>
80002d90:	00040513          	mv	a0,s0
80002d94:	17c010ef          	jal	ra,80003f10 <__clzsi2>
80002d98:	ff850713          	addi	a4,a0,-8
80002d9c:	01f00793          	li	a5,31
80002da0:	08e7c063          	blt	a5,a4,80002e20 <__adddf3+0x668>
80002da4:	02000793          	li	a5,32
80002da8:	40e787b3          	sub	a5,a5,a4
80002dac:	00e41433          	sll	s0,s0,a4
80002db0:	00f9d7b3          	srl	a5,s3,a5
80002db4:	0087e433          	or	s0,a5,s0
80002db8:	00e99533          	sll	a0,s3,a4
80002dbc:	0a974463          	blt	a4,s1,80002e64 <__adddf3+0x6ac>
80002dc0:	40970733          	sub	a4,a4,s1
80002dc4:	00170793          	addi	a5,a4,1
80002dc8:	01f00693          	li	a3,31
80002dcc:	06f6c263          	blt	a3,a5,80002e30 <__adddf3+0x678>
80002dd0:	02000713          	li	a4,32
80002dd4:	40f70733          	sub	a4,a4,a5
80002dd8:	00f55633          	srl	a2,a0,a5
80002ddc:	00e416b3          	sll	a3,s0,a4
80002de0:	00e51533          	sll	a0,a0,a4
80002de4:	00c6e6b3          	or	a3,a3,a2
80002de8:	00a03533          	snez	a0,a0
80002dec:	00a6e533          	or	a0,a3,a0
80002df0:	00f457b3          	srl	a5,s0,a5
80002df4:	00000493          	li	s1,0
80002df8:	c75ff06f          	j	80002a6c <__adddf3+0x2b4>
80002dfc:	0089e533          	or	a0,s3,s0
80002e00:	f80516e3          	bnez	a0,80002d8c <__adddf3+0x5d4>
80002e04:	00000793          	li	a5,0
80002e08:	00000493          	li	s1,0
80002e0c:	1400006f          	j	80002f4c <__adddf3+0x794>
80002e10:	00098513          	mv	a0,s3
80002e14:	0fc010ef          	jal	ra,80003f10 <__clzsi2>
80002e18:	02050513          	addi	a0,a0,32
80002e1c:	f7dff06f          	j	80002d98 <__adddf3+0x5e0>
80002e20:	fd850413          	addi	s0,a0,-40
80002e24:	00899433          	sll	s0,s3,s0
80002e28:	00000513          	li	a0,0
80002e2c:	f91ff06f          	j	80002dbc <__adddf3+0x604>
80002e30:	fe170713          	addi	a4,a4,-31
80002e34:	02000613          	li	a2,32
80002e38:	00e45733          	srl	a4,s0,a4
80002e3c:	00000693          	li	a3,0
80002e40:	00c78863          	beq	a5,a2,80002e50 <__adddf3+0x698>
80002e44:	04000693          	li	a3,64
80002e48:	40f686b3          	sub	a3,a3,a5
80002e4c:	00d416b3          	sll	a3,s0,a3
80002e50:	00d56533          	or	a0,a0,a3
80002e54:	00a03533          	snez	a0,a0
80002e58:	00a76533          	or	a0,a4,a0
80002e5c:	00000793          	li	a5,0
80002e60:	f95ff06f          	j	80002df4 <__adddf3+0x63c>
80002e64:	ff8007b7          	lui	a5,0xff800
80002e68:	fff78793          	addi	a5,a5,-1 # ff7fffff <__stack_top+0x4b2fffff>
80002e6c:	40e484b3          	sub	s1,s1,a4
80002e70:	00f477b3          	and	a5,s0,a5
80002e74:	bf9ff06f          	j	80002a6c <__adddf3+0x2b4>
80002e78:	00070793          	mv	a5,a4
80002e7c:	00060513          	mv	a0,a2
80002e80:	00058493          	mv	s1,a1
80002e84:	be9ff06f          	j	80002a6c <__adddf3+0x2b4>
80002e88:	00070793          	mv	a5,a4
80002e8c:	00060513          	mv	a0,a2
80002e90:	bddff06f          	j	80002a6c <__adddf3+0x2b4>
80002e94:	7ff00493          	li	s1,2047
80002e98:	00000793          	li	a5,0
80002e9c:	00000513          	li	a0,0
80002ea0:	00879713          	slli	a4,a5,0x8
80002ea4:	00075e63          	bgez	a4,80002ec0 <__adddf3+0x708>
80002ea8:	00148493          	addi	s1,s1,1
80002eac:	7ff00713          	li	a4,2047
80002eb0:	0ae48e63          	beq	s1,a4,80002f6c <__adddf3+0x7b4>
80002eb4:	ff800737          	lui	a4,0xff800
80002eb8:	fff70713          	addi	a4,a4,-1 # ff7fffff <__stack_top+0x4b2fffff>
80002ebc:	00e7f7b3          	and	a5,a5,a4
80002ec0:	01d79713          	slli	a4,a5,0x1d
80002ec4:	00355513          	srli	a0,a0,0x3
80002ec8:	00a76533          	or	a0,a4,a0
80002ecc:	7ff00713          	li	a4,2047
80002ed0:	0037d793          	srli	a5,a5,0x3
80002ed4:	00e49e63          	bne	s1,a4,80002ef0 <__adddf3+0x738>
80002ed8:	00f56533          	or	a0,a0,a5
80002edc:	00000793          	li	a5,0
80002ee0:	00050863          	beqz	a0,80002ef0 <__adddf3+0x738>
80002ee4:	000807b7          	lui	a5,0x80
80002ee8:	00000513          	li	a0,0
80002eec:	00000913          	li	s2,0
80002ef0:	7ff4f713          	andi	a4,s1,2047
80002ef4:	00c79793          	slli	a5,a5,0xc
80002ef8:	01471713          	slli	a4,a4,0x14
80002efc:	01c12083          	lw	ra,28(sp)
80002f00:	01812403          	lw	s0,24(sp)
80002f04:	00c7d793          	srli	a5,a5,0xc
80002f08:	01f91593          	slli	a1,s2,0x1f
80002f0c:	00e7e7b3          	or	a5,a5,a4
80002f10:	00b7e733          	or	a4,a5,a1
80002f14:	01412483          	lw	s1,20(sp)
80002f18:	01012903          	lw	s2,16(sp)
80002f1c:	00c12983          	lw	s3,12(sp)
80002f20:	00070593          	mv	a1,a4
80002f24:	02010113          	addi	sp,sp,32
80002f28:	00008067          	ret
80002f2c:	00080493          	mv	s1,a6
80002f30:	b3dff06f          	j	80002a6c <__adddf3+0x2b4>
80002f34:	00070793          	mv	a5,a4
80002f38:	00060513          	mv	a0,a2
80002f3c:	00080493          	mv	s1,a6
80002f40:	db5ff06f          	j	80002cf4 <__adddf3+0x53c>
80002f44:	00000793          	li	a5,0
80002f48:	00000513          	li	a0,0
80002f4c:	00000913          	li	s2,0
80002f50:	f51ff06f          	j	80002ea0 <__adddf3+0x6e8>
80002f54:	00000793          	li	a5,0
80002f58:	ff5ff06f          	j	80002f4c <__adddf3+0x794>
80002f5c:	00000513          	li	a0,0
80002f60:	00000913          	li	s2,0
80002f64:	004007b7          	lui	a5,0x400
80002f68:	b45ff06f          	j	80002aac <__adddf3+0x2f4>
80002f6c:	00000793          	li	a5,0
80002f70:	00000513          	li	a0,0
80002f74:	f4dff06f          	j	80002ec0 <__adddf3+0x708>

80002f78 <__ledf2>:
80002f78:	0145d813          	srli	a6,a1,0x14
80002f7c:	001007b7          	lui	a5,0x100
80002f80:	fff78793          	addi	a5,a5,-1 # fffff <__stack_size+0xeffff>
80002f84:	0146d713          	srli	a4,a3,0x14
80002f88:	00050313          	mv	t1,a0
80002f8c:	00050e93          	mv	t4,a0
80002f90:	7ff87813          	andi	a6,a6,2047
80002f94:	7ff00513          	li	a0,2047
80002f98:	00b7f8b3          	and	a7,a5,a1
80002f9c:	00060f13          	mv	t5,a2
80002fa0:	00d7f7b3          	and	a5,a5,a3
80002fa4:	01f5d593          	srli	a1,a1,0x1f
80002fa8:	7ff77713          	andi	a4,a4,2047
80002fac:	01f6d693          	srli	a3,a3,0x1f
80002fb0:	00a81a63          	bne	a6,a0,80002fc4 <__ledf2+0x4c>
80002fb4:	0068ee33          	or	t3,a7,t1
80002fb8:	00200513          	li	a0,2
80002fbc:	080e0a63          	beqz	t3,80003050 <__ledf2+0xd8>
80002fc0:	00008067          	ret
80002fc4:	00a71863          	bne	a4,a0,80002fd4 <__ledf2+0x5c>
80002fc8:	00c7ee33          	or	t3,a5,a2
80002fcc:	00200513          	li	a0,2
80002fd0:	020e1663          	bnez	t3,80002ffc <__ledf2+0x84>
80002fd4:	08081063          	bnez	a6,80003054 <__ledf2+0xdc>
80002fd8:	0068e533          	or	a0,a7,t1
80002fdc:	00153513          	seqz	a0,a0
80002fe0:	00071663          	bnez	a4,80002fec <__ledf2+0x74>
80002fe4:	00c7e633          	or	a2,a5,a2
80002fe8:	04060a63          	beqz	a2,8000303c <__ledf2+0xc4>
80002fec:	00051a63          	bnez	a0,80003000 <__ledf2+0x88>
80002ff0:	00d58e63          	beq	a1,a3,8000300c <__ledf2+0x94>
80002ff4:	00100513          	li	a0,1
80002ff8:	00059663          	bnez	a1,80003004 <__ledf2+0x8c>
80002ffc:	00008067          	ret
80003000:	fe069ee3          	bnez	a3,80002ffc <__ledf2+0x84>
80003004:	fff00513          	li	a0,-1
80003008:	00008067          	ret
8000300c:	ff0744e3          	blt	a4,a6,80002ff4 <__ledf2+0x7c>
80003010:	00e85a63          	ble	a4,a6,80003024 <__ledf2+0xac>
80003014:	fff00513          	li	a0,-1
80003018:	fe0582e3          	beqz	a1,80002ffc <__ledf2+0x84>
8000301c:	00100513          	li	a0,1
80003020:	00008067          	ret
80003024:	fd17e8e3          	bltu	a5,a7,80002ff4 <__ledf2+0x7c>
80003028:	02f89063          	bne	a7,a5,80003048 <__ledf2+0xd0>
8000302c:	fddf64e3          	bltu	t5,t4,80002ff4 <__ledf2+0x7c>
80003030:	00000513          	li	a0,0
80003034:	fdeef4e3          	bleu	t5,t4,80002ffc <__ledf2+0x84>
80003038:	fddff06f          	j	80003014 <__ledf2+0x9c>
8000303c:	fa050ce3          	beqz	a0,80002ff4 <__ledf2+0x7c>
80003040:	00000513          	li	a0,0
80003044:	00008067          	ret
80003048:	fcf8e6e3          	bltu	a7,a5,80003014 <__ledf2+0x9c>
8000304c:	ff5ff06f          	j	80003040 <__ledf2+0xc8>
80003050:	f7070ce3          	beq	a4,a6,80002fc8 <__ledf2+0x50>
80003054:	f8071ee3          	bnez	a4,80002ff0 <__ledf2+0x78>
80003058:	00000513          	li	a0,0
8000305c:	f89ff06f          	j	80002fe4 <__ledf2+0x6c>

80003060 <__muldf3>:
80003060:	fd010113          	addi	sp,sp,-48
80003064:	03212023          	sw	s2,32(sp)
80003068:	0145d913          	srli	s2,a1,0x14
8000306c:	01312e23          	sw	s3,28(sp)
80003070:	01412c23          	sw	s4,24(sp)
80003074:	01512a23          	sw	s5,20(sp)
80003078:	01612823          	sw	s6,16(sp)
8000307c:	01712623          	sw	s7,12(sp)
80003080:	00c59a93          	slli	s5,a1,0xc
80003084:	02112623          	sw	ra,44(sp)
80003088:	02812423          	sw	s0,40(sp)
8000308c:	02912223          	sw	s1,36(sp)
80003090:	7ff97913          	andi	s2,s2,2047
80003094:	00050b13          	mv	s6,a0
80003098:	00060b93          	mv	s7,a2
8000309c:	00068a13          	mv	s4,a3
800030a0:	00cada93          	srli	s5,s5,0xc
800030a4:	01f5d993          	srli	s3,a1,0x1f
800030a8:	0a090463          	beqz	s2,80003150 <__muldf3+0xf0>
800030ac:	7ff00793          	li	a5,2047
800030b0:	10f90263          	beq	s2,a5,800031b4 <__muldf3+0x154>
800030b4:	01d55413          	srli	s0,a0,0x1d
800030b8:	003a9a93          	slli	s5,s5,0x3
800030bc:	01546ab3          	or	s5,s0,s5
800030c0:	00800437          	lui	s0,0x800
800030c4:	008ae433          	or	s0,s5,s0
800030c8:	00351493          	slli	s1,a0,0x3
800030cc:	c0190913          	addi	s2,s2,-1023
800030d0:	00000b13          	li	s6,0
800030d4:	014a5513          	srli	a0,s4,0x14
800030d8:	00ca1a93          	slli	s5,s4,0xc
800030dc:	7ff57513          	andi	a0,a0,2047
800030e0:	000b8713          	mv	a4,s7
800030e4:	00cada93          	srli	s5,s5,0xc
800030e8:	01fa5a13          	srli	s4,s4,0x1f
800030ec:	10050263          	beqz	a0,800031f0 <__muldf3+0x190>
800030f0:	7ff00793          	li	a5,2047
800030f4:	16f50263          	beq	a0,a5,80003258 <__muldf3+0x1f8>
800030f8:	01dbd793          	srli	a5,s7,0x1d
800030fc:	003a9a93          	slli	s5,s5,0x3
80003100:	0157eab3          	or	s5,a5,s5
80003104:	008007b7          	lui	a5,0x800
80003108:	00fae7b3          	or	a5,s5,a5
8000310c:	003b9713          	slli	a4,s7,0x3
80003110:	c0150513          	addi	a0,a0,-1023
80003114:	00000693          	li	a3,0
80003118:	002b1593          	slli	a1,s6,0x2
8000311c:	00d5e5b3          	or	a1,a1,a3
80003120:	00a90533          	add	a0,s2,a0
80003124:	fff58593          	addi	a1,a1,-1
80003128:	00e00893          	li	a7,14
8000312c:	0149c633          	xor	a2,s3,s4
80003130:	00150813          	addi	a6,a0,1
80003134:	14b8ee63          	bltu	a7,a1,80003290 <__muldf3+0x230>
80003138:	8001c537          	lui	a0,0x8001c
8000313c:	00259593          	slli	a1,a1,0x2
80003140:	11c50513          	addi	a0,a0,284 # 8001c11c <__stack_top+0xcbb1c11c>
80003144:	00a585b3          	add	a1,a1,a0
80003148:	0005a583          	lw	a1,0(a1)
8000314c:	00058067          	jr	a1
80003150:	00aae433          	or	s0,s5,a0
80003154:	06040e63          	beqz	s0,800031d0 <__muldf3+0x170>
80003158:	040a8063          	beqz	s5,80003198 <__muldf3+0x138>
8000315c:	000a8513          	mv	a0,s5
80003160:	5b1000ef          	jal	ra,80003f10 <__clzsi2>
80003164:	ff550793          	addi	a5,a0,-11
80003168:	01c00713          	li	a4,28
8000316c:	02f74c63          	blt	a4,a5,800031a4 <__muldf3+0x144>
80003170:	01d00413          	li	s0,29
80003174:	ff850493          	addi	s1,a0,-8
80003178:	40f40433          	sub	s0,s0,a5
8000317c:	009a9ab3          	sll	s5,s5,s1
80003180:	008b5433          	srl	s0,s6,s0
80003184:	01546433          	or	s0,s0,s5
80003188:	009b14b3          	sll	s1,s6,s1
8000318c:	c0d00913          	li	s2,-1011
80003190:	40a90933          	sub	s2,s2,a0
80003194:	f3dff06f          	j	800030d0 <__muldf3+0x70>
80003198:	579000ef          	jal	ra,80003f10 <__clzsi2>
8000319c:	02050513          	addi	a0,a0,32
800031a0:	fc5ff06f          	j	80003164 <__muldf3+0x104>
800031a4:	fd850413          	addi	s0,a0,-40
800031a8:	008b1433          	sll	s0,s6,s0
800031ac:	00000493          	li	s1,0
800031b0:	fddff06f          	j	8000318c <__muldf3+0x12c>
800031b4:	00aae433          	or	s0,s5,a0
800031b8:	02040463          	beqz	s0,800031e0 <__muldf3+0x180>
800031bc:	00050493          	mv	s1,a0
800031c0:	000a8413          	mv	s0,s5
800031c4:	7ff00913          	li	s2,2047
800031c8:	00300b13          	li	s6,3
800031cc:	f09ff06f          	j	800030d4 <__muldf3+0x74>
800031d0:	00000493          	li	s1,0
800031d4:	00000913          	li	s2,0
800031d8:	00100b13          	li	s6,1
800031dc:	ef9ff06f          	j	800030d4 <__muldf3+0x74>
800031e0:	00000493          	li	s1,0
800031e4:	7ff00913          	li	s2,2047
800031e8:	00200b13          	li	s6,2
800031ec:	ee9ff06f          	j	800030d4 <__muldf3+0x74>
800031f0:	017ae7b3          	or	a5,s5,s7
800031f4:	06078e63          	beqz	a5,80003270 <__muldf3+0x210>
800031f8:	040a8063          	beqz	s5,80003238 <__muldf3+0x1d8>
800031fc:	000a8513          	mv	a0,s5
80003200:	511000ef          	jal	ra,80003f10 <__clzsi2>
80003204:	ff550693          	addi	a3,a0,-11
80003208:	01c00793          	li	a5,28
8000320c:	02d7ce63          	blt	a5,a3,80003248 <__muldf3+0x1e8>
80003210:	01d00793          	li	a5,29
80003214:	ff850713          	addi	a4,a0,-8
80003218:	40d787b3          	sub	a5,a5,a3
8000321c:	00ea9ab3          	sll	s5,s5,a4
80003220:	00fbd7b3          	srl	a5,s7,a5
80003224:	0157e7b3          	or	a5,a5,s5
80003228:	00eb9733          	sll	a4,s7,a4
8000322c:	c0d00613          	li	a2,-1011
80003230:	40a60533          	sub	a0,a2,a0
80003234:	ee1ff06f          	j	80003114 <__muldf3+0xb4>
80003238:	000b8513          	mv	a0,s7
8000323c:	4d5000ef          	jal	ra,80003f10 <__clzsi2>
80003240:	02050513          	addi	a0,a0,32
80003244:	fc1ff06f          	j	80003204 <__muldf3+0x1a4>
80003248:	fd850793          	addi	a5,a0,-40
8000324c:	00fb97b3          	sll	a5,s7,a5
80003250:	00000713          	li	a4,0
80003254:	fd9ff06f          	j	8000322c <__muldf3+0x1cc>
80003258:	017ae7b3          	or	a5,s5,s7
8000325c:	02078263          	beqz	a5,80003280 <__muldf3+0x220>
80003260:	000a8793          	mv	a5,s5
80003264:	7ff00513          	li	a0,2047
80003268:	00300693          	li	a3,3
8000326c:	eadff06f          	j	80003118 <__muldf3+0xb8>
80003270:	00000713          	li	a4,0
80003274:	00000513          	li	a0,0
80003278:	00100693          	li	a3,1
8000327c:	e9dff06f          	j	80003118 <__muldf3+0xb8>
80003280:	00000713          	li	a4,0
80003284:	7ff00513          	li	a0,2047
80003288:	00200693          	li	a3,2
8000328c:	e8dff06f          	j	80003118 <__muldf3+0xb8>
80003290:	00010fb7          	lui	t6,0x10
80003294:	ffff8f13          	addi	t5,t6,-1 # ffff <__stack_size-0x1>
80003298:	0104d693          	srli	a3,s1,0x10
8000329c:	01075313          	srli	t1,a4,0x10
800032a0:	01e4f4b3          	and	s1,s1,t5
800032a4:	01e77733          	and	a4,a4,t5
800032a8:	029308b3          	mul	a7,t1,s1
800032ac:	029705b3          	mul	a1,a4,s1
800032b0:	02e682b3          	mul	t0,a3,a4
800032b4:	00588e33          	add	t3,a7,t0
800032b8:	0105d893          	srli	a7,a1,0x10
800032bc:	01c888b3          	add	a7,a7,t3
800032c0:	02668eb3          	mul	t4,a3,t1
800032c4:	0058f463          	bleu	t0,a7,800032cc <__muldf3+0x26c>
800032c8:	01fe8eb3          	add	t4,t4,t6
800032cc:	0108d913          	srli	s2,a7,0x10
800032d0:	01e8f8b3          	and	a7,a7,t5
800032d4:	0107df93          	srli	t6,a5,0x10
800032d8:	01e5f5b3          	and	a1,a1,t5
800032dc:	01e7f3b3          	and	t2,a5,t5
800032e0:	01089893          	slli	a7,a7,0x10
800032e4:	00b888b3          	add	a7,a7,a1
800032e8:	027687b3          	mul	a5,a3,t2
800032ec:	029385b3          	mul	a1,t2,s1
800032f0:	029f84b3          	mul	s1,t6,s1
800032f4:	00f48e33          	add	t3,s1,a5
800032f8:	0105d493          	srli	s1,a1,0x10
800032fc:	01c484b3          	add	s1,s1,t3
80003300:	03f686b3          	mul	a3,a3,t6
80003304:	00f4f663          	bleu	a5,s1,80003310 <__muldf3+0x2b0>
80003308:	000107b7          	lui	a5,0x10
8000330c:	00f686b3          	add	a3,a3,a5
80003310:	0104df13          	srli	t5,s1,0x10
80003314:	000109b7          	lui	s3,0x10
80003318:	00df0f33          	add	t5,t5,a3
8000331c:	fff98693          	addi	a3,s3,-1 # ffff <__stack_size-0x1>
80003320:	00d4f4b3          	and	s1,s1,a3
80003324:	00d5f5b3          	and	a1,a1,a3
80003328:	01045793          	srli	a5,s0,0x10
8000332c:	01049493          	slli	s1,s1,0x10
80003330:	00d47433          	and	s0,s0,a3
80003334:	00b484b3          	add	s1,s1,a1
80003338:	028706b3          	mul	a3,a4,s0
8000333c:	00990933          	add	s2,s2,s1
80003340:	02e78e33          	mul	t3,a5,a4
80003344:	028305b3          	mul	a1,t1,s0
80003348:	02f30733          	mul	a4,t1,a5
8000334c:	01c58333          	add	t1,a1,t3
80003350:	0106d593          	srli	a1,a3,0x10
80003354:	006585b3          	add	a1,a1,t1
80003358:	01c5f463          	bleu	t3,a1,80003360 <__muldf3+0x300>
8000335c:	01370733          	add	a4,a4,s3
80003360:	0105d313          	srli	t1,a1,0x10
80003364:	000109b7          	lui	s3,0x10
80003368:	00e302b3          	add	t0,t1,a4
8000336c:	fff98713          	addi	a4,s3,-1 # ffff <__stack_size-0x1>
80003370:	00e5f5b3          	and	a1,a1,a4
80003374:	00e6f6b3          	and	a3,a3,a4
80003378:	02838333          	mul	t1,t2,s0
8000337c:	01059593          	slli	a1,a1,0x10
80003380:	00d585b3          	add	a1,a1,a3
80003384:	02778733          	mul	a4,a5,t2
80003388:	028f8433          	mul	s0,t6,s0
8000338c:	02ff8e33          	mul	t3,t6,a5
80003390:	00e40433          	add	s0,s0,a4
80003394:	01035793          	srli	a5,t1,0x10
80003398:	00878433          	add	s0,a5,s0
8000339c:	00e47463          	bleu	a4,s0,800033a4 <__muldf3+0x344>
800033a0:	013e0e33          	add	t3,t3,s3
800033a4:	000107b7          	lui	a5,0x10
800033a8:	fff78793          	addi	a5,a5,-1 # ffff <__stack_size-0x1>
800033ac:	00f476b3          	and	a3,s0,a5
800033b0:	00f37333          	and	t1,t1,a5
800033b4:	01069693          	slli	a3,a3,0x10
800033b8:	012e8eb3          	add	t4,t4,s2
800033bc:	006686b3          	add	a3,a3,t1
800033c0:	009eb4b3          	sltu	s1,t4,s1
800033c4:	01e686b3          	add	a3,a3,t5
800033c8:	009687b3          	add	a5,a3,s1
800033cc:	00be8eb3          	add	t4,t4,a1
800033d0:	00beb5b3          	sltu	a1,t4,a1
800033d4:	00578333          	add	t1,a5,t0
800033d8:	00b30fb3          	add	t6,t1,a1
800033dc:	01e6b6b3          	sltu	a3,a3,t5
800033e0:	0097b7b3          	sltu	a5,a5,s1
800033e4:	00f6e7b3          	or	a5,a3,a5
800033e8:	01045413          	srli	s0,s0,0x10
800033ec:	00533333          	sltu	t1,t1,t0
800033f0:	00bfb5b3          	sltu	a1,t6,a1
800033f4:	008787b3          	add	a5,a5,s0
800033f8:	00b365b3          	or	a1,t1,a1
800033fc:	00b787b3          	add	a5,a5,a1
80003400:	01c787b3          	add	a5,a5,t3
80003404:	017fd713          	srli	a4,t6,0x17
80003408:	00979793          	slli	a5,a5,0x9
8000340c:	00e7e7b3          	or	a5,a5,a4
80003410:	009e9713          	slli	a4,t4,0x9
80003414:	01176733          	or	a4,a4,a7
80003418:	00e03733          	snez	a4,a4
8000341c:	017ede93          	srli	t4,t4,0x17
80003420:	009f9693          	slli	a3,t6,0x9
80003424:	01d76733          	or	a4,a4,t4
80003428:	00d76733          	or	a4,a4,a3
8000342c:	00779693          	slli	a3,a5,0x7
80003430:	1006d263          	bgez	a3,80003534 <__muldf3+0x4d4>
80003434:	00175693          	srli	a3,a4,0x1
80003438:	00177713          	andi	a4,a4,1
8000343c:	00e6e733          	or	a4,a3,a4
80003440:	01f79693          	slli	a3,a5,0x1f
80003444:	00d76733          	or	a4,a4,a3
80003448:	0017d793          	srli	a5,a5,0x1
8000344c:	3ff80593          	addi	a1,a6,1023
80003450:	0eb05663          	blez	a1,8000353c <__muldf3+0x4dc>
80003454:	00777693          	andi	a3,a4,7
80003458:	02068063          	beqz	a3,80003478 <__muldf3+0x418>
8000345c:	00f77693          	andi	a3,a4,15
80003460:	00400513          	li	a0,4
80003464:	00a68a63          	beq	a3,a0,80003478 <__muldf3+0x418>
80003468:	00470693          	addi	a3,a4,4
8000346c:	00e6b733          	sltu	a4,a3,a4
80003470:	00e787b3          	add	a5,a5,a4
80003474:	00068713          	mv	a4,a3
80003478:	00779693          	slli	a3,a5,0x7
8000347c:	0006da63          	bgez	a3,80003490 <__muldf3+0x430>
80003480:	ff0006b7          	lui	a3,0xff000
80003484:	fff68693          	addi	a3,a3,-1 # feffffff <__stack_top+0x4aafffff>
80003488:	00d7f7b3          	and	a5,a5,a3
8000348c:	40080593          	addi	a1,a6,1024
80003490:	7fe00693          	li	a3,2046
80003494:	16b6c663          	blt	a3,a1,80003600 <__muldf3+0x5a0>
80003498:	00375693          	srli	a3,a4,0x3
8000349c:	01d79713          	slli	a4,a5,0x1d
800034a0:	00d76733          	or	a4,a4,a3
800034a4:	0037d793          	srli	a5,a5,0x3
800034a8:	7ff5f693          	andi	a3,a1,2047
800034ac:	00c79793          	slli	a5,a5,0xc
800034b0:	01469693          	slli	a3,a3,0x14
800034b4:	02c12083          	lw	ra,44(sp)
800034b8:	02812403          	lw	s0,40(sp)
800034bc:	00c7d793          	srli	a5,a5,0xc
800034c0:	01f61613          	slli	a2,a2,0x1f
800034c4:	00d7e7b3          	or	a5,a5,a3
800034c8:	00c7e6b3          	or	a3,a5,a2
800034cc:	02412483          	lw	s1,36(sp)
800034d0:	02012903          	lw	s2,32(sp)
800034d4:	01c12983          	lw	s3,28(sp)
800034d8:	01812a03          	lw	s4,24(sp)
800034dc:	01412a83          	lw	s5,20(sp)
800034e0:	01012b03          	lw	s6,16(sp)
800034e4:	00c12b83          	lw	s7,12(sp)
800034e8:	00070513          	mv	a0,a4
800034ec:	00068593          	mv	a1,a3
800034f0:	03010113          	addi	sp,sp,48
800034f4:	00008067          	ret
800034f8:	00098613          	mv	a2,s3
800034fc:	00040793          	mv	a5,s0
80003500:	00048713          	mv	a4,s1
80003504:	000b0693          	mv	a3,s6
80003508:	00200593          	li	a1,2
8000350c:	0eb68a63          	beq	a3,a1,80003600 <__muldf3+0x5a0>
80003510:	00300593          	li	a1,3
80003514:	0cb68c63          	beq	a3,a1,800035ec <__muldf3+0x58c>
80003518:	00100593          	li	a1,1
8000351c:	f2b698e3          	bne	a3,a1,8000344c <__muldf3+0x3ec>
80003520:	00000793          	li	a5,0
80003524:	00000713          	li	a4,0
80003528:	0880006f          	j	800035b0 <__muldf3+0x550>
8000352c:	000a0613          	mv	a2,s4
80003530:	fd9ff06f          	j	80003508 <__muldf3+0x4a8>
80003534:	00050813          	mv	a6,a0
80003538:	f15ff06f          	j	8000344c <__muldf3+0x3ec>
8000353c:	00100513          	li	a0,1
80003540:	40b50533          	sub	a0,a0,a1
80003544:	03800693          	li	a3,56
80003548:	fca6cce3          	blt	a3,a0,80003520 <__muldf3+0x4c0>
8000354c:	01f00693          	li	a3,31
80003550:	06a6c463          	blt	a3,a0,800035b8 <__muldf3+0x558>
80003554:	41e80813          	addi	a6,a6,1054
80003558:	010796b3          	sll	a3,a5,a6
8000355c:	00a755b3          	srl	a1,a4,a0
80003560:	01071733          	sll	a4,a4,a6
80003564:	00b6e6b3          	or	a3,a3,a1
80003568:	00e03733          	snez	a4,a4
8000356c:	00e6e733          	or	a4,a3,a4
80003570:	00a7d7b3          	srl	a5,a5,a0
80003574:	00777693          	andi	a3,a4,7
80003578:	02068063          	beqz	a3,80003598 <__muldf3+0x538>
8000357c:	00f77693          	andi	a3,a4,15
80003580:	00400593          	li	a1,4
80003584:	00b68a63          	beq	a3,a1,80003598 <__muldf3+0x538>
80003588:	00470693          	addi	a3,a4,4
8000358c:	00e6b733          	sltu	a4,a3,a4
80003590:	00e787b3          	add	a5,a5,a4
80003594:	00068713          	mv	a4,a3
80003598:	00879693          	slli	a3,a5,0x8
8000359c:	0606ca63          	bltz	a3,80003610 <__muldf3+0x5b0>
800035a0:	01d79693          	slli	a3,a5,0x1d
800035a4:	00375713          	srli	a4,a4,0x3
800035a8:	00e6e733          	or	a4,a3,a4
800035ac:	0037d793          	srli	a5,a5,0x3
800035b0:	00000593          	li	a1,0
800035b4:	ef5ff06f          	j	800034a8 <__muldf3+0x448>
800035b8:	fe100693          	li	a3,-31
800035bc:	40b686b3          	sub	a3,a3,a1
800035c0:	02000893          	li	a7,32
800035c4:	00d7d6b3          	srl	a3,a5,a3
800035c8:	00000593          	li	a1,0
800035cc:	01150663          	beq	a0,a7,800035d8 <__muldf3+0x578>
800035d0:	43e80813          	addi	a6,a6,1086
800035d4:	010795b3          	sll	a1,a5,a6
800035d8:	00e5e733          	or	a4,a1,a4
800035dc:	00e03733          	snez	a4,a4
800035e0:	00e6e733          	or	a4,a3,a4
800035e4:	00000793          	li	a5,0
800035e8:	f8dff06f          	j	80003574 <__muldf3+0x514>
800035ec:	000807b7          	lui	a5,0x80
800035f0:	00000713          	li	a4,0
800035f4:	7ff00593          	li	a1,2047
800035f8:	00000613          	li	a2,0
800035fc:	eadff06f          	j	800034a8 <__muldf3+0x448>
80003600:	00000793          	li	a5,0
80003604:	00000713          	li	a4,0
80003608:	7ff00593          	li	a1,2047
8000360c:	e9dff06f          	j	800034a8 <__muldf3+0x448>
80003610:	00000793          	li	a5,0
80003614:	00000713          	li	a4,0
80003618:	00100593          	li	a1,1
8000361c:	e8dff06f          	j	800034a8 <__muldf3+0x448>

80003620 <__subdf3>:
80003620:	00100837          	lui	a6,0x100
80003624:	fff80813          	addi	a6,a6,-1 # fffff <__stack_size+0xeffff>
80003628:	00b878b3          	and	a7,a6,a1
8000362c:	00389893          	slli	a7,a7,0x3
80003630:	01d55793          	srli	a5,a0,0x1d
80003634:	fe010113          	addi	sp,sp,-32
80003638:	0145d713          	srli	a4,a1,0x14
8000363c:	00d87833          	and	a6,a6,a3
80003640:	0117e7b3          	or	a5,a5,a7
80003644:	0146d893          	srli	a7,a3,0x14
80003648:	00912a23          	sw	s1,20(sp)
8000364c:	01212823          	sw	s2,16(sp)
80003650:	7ff77493          	andi	s1,a4,2047
80003654:	01f5d913          	srli	s2,a1,0x1f
80003658:	01d65713          	srli	a4,a2,0x1d
8000365c:	00381813          	slli	a6,a6,0x3
80003660:	00112e23          	sw	ra,28(sp)
80003664:	00812c23          	sw	s0,24(sp)
80003668:	01312623          	sw	s3,12(sp)
8000366c:	7ff8f893          	andi	a7,a7,2047
80003670:	7ff00593          	li	a1,2047
80003674:	00351513          	slli	a0,a0,0x3
80003678:	01f6d693          	srli	a3,a3,0x1f
8000367c:	01076733          	or	a4,a4,a6
80003680:	00361613          	slli	a2,a2,0x3
80003684:	00b89663          	bne	a7,a1,80003690 <__subdf3+0x70>
80003688:	00c765b3          	or	a1,a4,a2
8000368c:	00059463          	bnez	a1,80003694 <__subdf3+0x74>
80003690:	0016c693          	xori	a3,a3,1
80003694:	41148833          	sub	a6,s1,a7
80003698:	2d269063          	bne	a3,s2,80003958 <__subdf3+0x338>
8000369c:	13005c63          	blez	a6,800037d4 <__subdf3+0x1b4>
800036a0:	06089063          	bnez	a7,80003700 <__subdf3+0xe0>
800036a4:	00c766b3          	or	a3,a4,a2
800036a8:	02068863          	beqz	a3,800036d8 <__subdf3+0xb8>
800036ac:	fff48813          	addi	a6,s1,-1
800036b0:	02081063          	bnez	a6,800036d0 <__subdf3+0xb0>
800036b4:	00c50633          	add	a2,a0,a2
800036b8:	00a63533          	sltu	a0,a2,a0
800036bc:	00e787b3          	add	a5,a5,a4
800036c0:	00a787b3          	add	a5,a5,a0
800036c4:	00060513          	mv	a0,a2
800036c8:	00100493          	li	s1,1
800036cc:	08c0006f          	j	80003758 <__subdf3+0x138>
800036d0:	7ff00693          	li	a3,2047
800036d4:	02d49e63          	bne	s1,a3,80003710 <__subdf3+0xf0>
800036d8:	00757713          	andi	a4,a0,7
800036dc:	62070c63          	beqz	a4,80003d14 <__subdf3+0x6f4>
800036e0:	00f57713          	andi	a4,a0,15
800036e4:	00400693          	li	a3,4
800036e8:	62d70663          	beq	a4,a3,80003d14 <__subdf3+0x6f4>
800036ec:	00450693          	addi	a3,a0,4
800036f0:	00a6b533          	sltu	a0,a3,a0
800036f4:	00a787b3          	add	a5,a5,a0
800036f8:	00068513          	mv	a0,a3
800036fc:	6180006f          	j	80003d14 <__subdf3+0x6f4>
80003700:	7ff00693          	li	a3,2047
80003704:	fcd48ae3          	beq	s1,a3,800036d8 <__subdf3+0xb8>
80003708:	008006b7          	lui	a3,0x800
8000370c:	00d76733          	or	a4,a4,a3
80003710:	03800693          	li	a3,56
80003714:	0b06ca63          	blt	a3,a6,800037c8 <__subdf3+0x1a8>
80003718:	01f00693          	li	a3,31
8000371c:	0706cc63          	blt	a3,a6,80003794 <__subdf3+0x174>
80003720:	02000593          	li	a1,32
80003724:	410585b3          	sub	a1,a1,a6
80003728:	00b716b3          	sll	a3,a4,a1
8000372c:	010658b3          	srl	a7,a2,a6
80003730:	00b61633          	sll	a2,a2,a1
80003734:	0116e6b3          	or	a3,a3,a7
80003738:	00c03633          	snez	a2,a2
8000373c:	00c6e633          	or	a2,a3,a2
80003740:	01075733          	srl	a4,a4,a6
80003744:	00a60633          	add	a2,a2,a0
80003748:	00f70733          	add	a4,a4,a5
8000374c:	00a637b3          	sltu	a5,a2,a0
80003750:	00f707b3          	add	a5,a4,a5
80003754:	00060513          	mv	a0,a2
80003758:	00879713          	slli	a4,a5,0x8
8000375c:	f6075ee3          	bgez	a4,800036d8 <__subdf3+0xb8>
80003760:	00148493          	addi	s1,s1,1
80003764:	7ff00713          	li	a4,2047
80003768:	5ae48263          	beq	s1,a4,80003d0c <__subdf3+0x6ec>
8000376c:	ff8006b7          	lui	a3,0xff800
80003770:	fff68693          	addi	a3,a3,-1 # ff7fffff <__stack_top+0x4b2fffff>
80003774:	00d7f6b3          	and	a3,a5,a3
80003778:	00155593          	srli	a1,a0,0x1
8000377c:	00157513          	andi	a0,a0,1
80003780:	01f69793          	slli	a5,a3,0x1f
80003784:	00a5e533          	or	a0,a1,a0
80003788:	00a7e533          	or	a0,a5,a0
8000378c:	0016d793          	srli	a5,a3,0x1
80003790:	f49ff06f          	j	800036d8 <__subdf3+0xb8>
80003794:	fe080693          	addi	a3,a6,-32
80003798:	02000893          	li	a7,32
8000379c:	00d756b3          	srl	a3,a4,a3
800037a0:	00000593          	li	a1,0
800037a4:	01180863          	beq	a6,a7,800037b4 <__subdf3+0x194>
800037a8:	04000593          	li	a1,64
800037ac:	41058833          	sub	a6,a1,a6
800037b0:	010715b3          	sll	a1,a4,a6
800037b4:	00c5e633          	or	a2,a1,a2
800037b8:	00c03633          	snez	a2,a2
800037bc:	00c6e633          	or	a2,a3,a2
800037c0:	00000713          	li	a4,0
800037c4:	f81ff06f          	j	80003744 <__subdf3+0x124>
800037c8:	00c76633          	or	a2,a4,a2
800037cc:	00c03633          	snez	a2,a2
800037d0:	ff1ff06f          	j	800037c0 <__subdf3+0x1a0>
800037d4:	0e080263          	beqz	a6,800038b8 <__subdf3+0x298>
800037d8:	409885b3          	sub	a1,a7,s1
800037dc:	02049e63          	bnez	s1,80003818 <__subdf3+0x1f8>
800037e0:	00a7e6b3          	or	a3,a5,a0
800037e4:	50068463          	beqz	a3,80003cec <__subdf3+0x6cc>
800037e8:	fff58693          	addi	a3,a1,-1
800037ec:	00069c63          	bnez	a3,80003804 <__subdf3+0x1e4>
800037f0:	00c50533          	add	a0,a0,a2
800037f4:	00e787b3          	add	a5,a5,a4
800037f8:	00c53633          	sltu	a2,a0,a2
800037fc:	00c787b3          	add	a5,a5,a2
80003800:	ec9ff06f          	j	800036c8 <__subdf3+0xa8>
80003804:	7ff00813          	li	a6,2047
80003808:	03059263          	bne	a1,a6,8000382c <__subdf3+0x20c>
8000380c:	00070793          	mv	a5,a4
80003810:	00060513          	mv	a0,a2
80003814:	3b00006f          	j	80003bc4 <__subdf3+0x5a4>
80003818:	7ff00693          	li	a3,2047
8000381c:	fed888e3          	beq	a7,a3,8000380c <__subdf3+0x1ec>
80003820:	008006b7          	lui	a3,0x800
80003824:	00d7e7b3          	or	a5,a5,a3
80003828:	00058693          	mv	a3,a1
8000382c:	03800593          	li	a1,56
80003830:	06d5ce63          	blt	a1,a3,800038ac <__subdf3+0x28c>
80003834:	01f00593          	li	a1,31
80003838:	04d5c063          	blt	a1,a3,80003878 <__subdf3+0x258>
8000383c:	02000813          	li	a6,32
80003840:	40d80833          	sub	a6,a6,a3
80003844:	00d55333          	srl	t1,a0,a3
80003848:	010795b3          	sll	a1,a5,a6
8000384c:	01051533          	sll	a0,a0,a6
80003850:	0065e5b3          	or	a1,a1,t1
80003854:	00a03533          	snez	a0,a0
80003858:	00a5e533          	or	a0,a1,a0
8000385c:	00d7d6b3          	srl	a3,a5,a3
80003860:	00c50533          	add	a0,a0,a2
80003864:	00e687b3          	add	a5,a3,a4
80003868:	00c53633          	sltu	a2,a0,a2
8000386c:	00c787b3          	add	a5,a5,a2
80003870:	00088493          	mv	s1,a7
80003874:	ee5ff06f          	j	80003758 <__subdf3+0x138>
80003878:	fe068593          	addi	a1,a3,-32 # 7fffe0 <__stack_size+0x7effe0>
8000387c:	02000313          	li	t1,32
80003880:	00b7d5b3          	srl	a1,a5,a1
80003884:	00000813          	li	a6,0
80003888:	00668863          	beq	a3,t1,80003898 <__subdf3+0x278>
8000388c:	04000813          	li	a6,64
80003890:	40d806b3          	sub	a3,a6,a3
80003894:	00d79833          	sll	a6,a5,a3
80003898:	00a86533          	or	a0,a6,a0
8000389c:	00a03533          	snez	a0,a0
800038a0:	00a5e533          	or	a0,a1,a0
800038a4:	00000693          	li	a3,0
800038a8:	fb9ff06f          	j	80003860 <__subdf3+0x240>
800038ac:	00a7e533          	or	a0,a5,a0
800038b0:	00a03533          	snez	a0,a0
800038b4:	ff1ff06f          	j	800038a4 <__subdf3+0x284>
800038b8:	00148693          	addi	a3,s1,1
800038bc:	7fe6f593          	andi	a1,a3,2046
800038c0:	06059463          	bnez	a1,80003928 <__subdf3+0x308>
800038c4:	00a7e6b3          	or	a3,a5,a0
800038c8:	04049063          	bnez	s1,80003908 <__subdf3+0x2e8>
800038cc:	42068863          	beqz	a3,80003cfc <__subdf3+0x6dc>
800038d0:	00c766b3          	or	a3,a4,a2
800038d4:	e00682e3          	beqz	a3,800036d8 <__subdf3+0xb8>
800038d8:	00c50633          	add	a2,a0,a2
800038dc:	00e787b3          	add	a5,a5,a4
800038e0:	00a63533          	sltu	a0,a2,a0
800038e4:	00a787b3          	add	a5,a5,a0
800038e8:	00879713          	slli	a4,a5,0x8
800038ec:	00060513          	mv	a0,a2
800038f0:	de0754e3          	bgez	a4,800036d8 <__subdf3+0xb8>
800038f4:	ff800737          	lui	a4,0xff800
800038f8:	fff70713          	addi	a4,a4,-1 # ff7fffff <__stack_top+0x4b2fffff>
800038fc:	00e7f7b3          	and	a5,a5,a4
80003900:	00100493          	li	s1,1
80003904:	dd5ff06f          	j	800036d8 <__subdf3+0xb8>
80003908:	f00682e3          	beqz	a3,8000380c <__subdf3+0x1ec>
8000390c:	00c76633          	or	a2,a4,a2
80003910:	2a060a63          	beqz	a2,80003bc4 <__subdf3+0x5a4>
80003914:	00000913          	li	s2,0
80003918:	004007b7          	lui	a5,0x400
8000391c:	00000513          	li	a0,0
80003920:	7ff00493          	li	s1,2047
80003924:	3f00006f          	j	80003d14 <__subdf3+0x6f4>
80003928:	7ff00593          	li	a1,2047
8000392c:	3cb68e63          	beq	a3,a1,80003d08 <__subdf3+0x6e8>
80003930:	00c50633          	add	a2,a0,a2
80003934:	00e78733          	add	a4,a5,a4
80003938:	00a637b3          	sltu	a5,a2,a0
8000393c:	00f70733          	add	a4,a4,a5
80003940:	01f71513          	slli	a0,a4,0x1f
80003944:	00165613          	srli	a2,a2,0x1
80003948:	00c56533          	or	a0,a0,a2
8000394c:	00175793          	srli	a5,a4,0x1
80003950:	00068493          	mv	s1,a3
80003954:	d85ff06f          	j	800036d8 <__subdf3+0xb8>
80003958:	0f005a63          	blez	a6,80003a4c <__subdf3+0x42c>
8000395c:	08089e63          	bnez	a7,800039f8 <__subdf3+0x3d8>
80003960:	00c766b3          	or	a3,a4,a2
80003964:	d6068ae3          	beqz	a3,800036d8 <__subdf3+0xb8>
80003968:	fff48813          	addi	a6,s1,-1
8000396c:	02081063          	bnez	a6,8000398c <__subdf3+0x36c>
80003970:	40c50633          	sub	a2,a0,a2
80003974:	00c53533          	sltu	a0,a0,a2
80003978:	40e787b3          	sub	a5,a5,a4
8000397c:	40a787b3          	sub	a5,a5,a0
80003980:	00060513          	mv	a0,a2
80003984:	00100493          	li	s1,1
80003988:	0540006f          	j	800039dc <__subdf3+0x3bc>
8000398c:	7ff00693          	li	a3,2047
80003990:	d4d484e3          	beq	s1,a3,800036d8 <__subdf3+0xb8>
80003994:	03800693          	li	a3,56
80003998:	0b06c463          	blt	a3,a6,80003a40 <__subdf3+0x420>
8000399c:	01f00693          	li	a3,31
800039a0:	0706c663          	blt	a3,a6,80003a0c <__subdf3+0x3ec>
800039a4:	02000593          	li	a1,32
800039a8:	410585b3          	sub	a1,a1,a6
800039ac:	00b716b3          	sll	a3,a4,a1
800039b0:	010658b3          	srl	a7,a2,a6
800039b4:	00b61633          	sll	a2,a2,a1
800039b8:	0116e6b3          	or	a3,a3,a7
800039bc:	00c03633          	snez	a2,a2
800039c0:	00c6e633          	or	a2,a3,a2
800039c4:	01075733          	srl	a4,a4,a6
800039c8:	40c50633          	sub	a2,a0,a2
800039cc:	40e78733          	sub	a4,a5,a4
800039d0:	00c537b3          	sltu	a5,a0,a2
800039d4:	40f707b3          	sub	a5,a4,a5
800039d8:	00060513          	mv	a0,a2
800039dc:	00879713          	slli	a4,a5,0x8
800039e0:	ce075ce3          	bgez	a4,800036d8 <__subdf3+0xb8>
800039e4:	00800437          	lui	s0,0x800
800039e8:	fff40413          	addi	s0,s0,-1 # 7fffff <__stack_size+0x7effff>
800039ec:	0087f433          	and	s0,a5,s0
800039f0:	00050993          	mv	s3,a0
800039f4:	20c0006f          	j	80003c00 <__subdf3+0x5e0>
800039f8:	7ff00693          	li	a3,2047
800039fc:	ccd48ee3          	beq	s1,a3,800036d8 <__subdf3+0xb8>
80003a00:	008006b7          	lui	a3,0x800
80003a04:	00d76733          	or	a4,a4,a3
80003a08:	f8dff06f          	j	80003994 <__subdf3+0x374>
80003a0c:	fe080693          	addi	a3,a6,-32
80003a10:	02000893          	li	a7,32
80003a14:	00d756b3          	srl	a3,a4,a3
80003a18:	00000593          	li	a1,0
80003a1c:	01180863          	beq	a6,a7,80003a2c <__subdf3+0x40c>
80003a20:	04000593          	li	a1,64
80003a24:	41058833          	sub	a6,a1,a6
80003a28:	010715b3          	sll	a1,a4,a6
80003a2c:	00c5e633          	or	a2,a1,a2
80003a30:	00c03633          	snez	a2,a2
80003a34:	00c6e633          	or	a2,a3,a2
80003a38:	00000713          	li	a4,0
80003a3c:	f8dff06f          	j	800039c8 <__subdf3+0x3a8>
80003a40:	00c76633          	or	a2,a4,a2
80003a44:	00c03633          	snez	a2,a2
80003a48:	ff1ff06f          	j	80003a38 <__subdf3+0x418>
80003a4c:	0e080863          	beqz	a6,80003b3c <__subdf3+0x51c>
80003a50:	40988833          	sub	a6,a7,s1
80003a54:	04049263          	bnez	s1,80003a98 <__subdf3+0x478>
80003a58:	00a7e5b3          	or	a1,a5,a0
80003a5c:	34058263          	beqz	a1,80003da0 <__subdf3+0x780>
80003a60:	fff80593          	addi	a1,a6,-1
80003a64:	00059e63          	bnez	a1,80003a80 <__subdf3+0x460>
80003a68:	40a60533          	sub	a0,a2,a0
80003a6c:	40f707b3          	sub	a5,a4,a5
80003a70:	00a63633          	sltu	a2,a2,a0
80003a74:	40c787b3          	sub	a5,a5,a2
80003a78:	00068913          	mv	s2,a3
80003a7c:	f09ff06f          	j	80003984 <__subdf3+0x364>
80003a80:	7ff00313          	li	t1,2047
80003a84:	02681463          	bne	a6,t1,80003aac <__subdf3+0x48c>
80003a88:	00070793          	mv	a5,a4
80003a8c:	00060513          	mv	a0,a2
80003a90:	7ff00493          	li	s1,2047
80003a94:	0d00006f          	j	80003b64 <__subdf3+0x544>
80003a98:	7ff00593          	li	a1,2047
80003a9c:	feb886e3          	beq	a7,a1,80003a88 <__subdf3+0x468>
80003aa0:	008005b7          	lui	a1,0x800
80003aa4:	00b7e7b3          	or	a5,a5,a1
80003aa8:	00080593          	mv	a1,a6
80003aac:	03800813          	li	a6,56
80003ab0:	08b84063          	blt	a6,a1,80003b30 <__subdf3+0x510>
80003ab4:	01f00813          	li	a6,31
80003ab8:	04b84263          	blt	a6,a1,80003afc <__subdf3+0x4dc>
80003abc:	02000313          	li	t1,32
80003ac0:	40b30333          	sub	t1,t1,a1
80003ac4:	00b55e33          	srl	t3,a0,a1
80003ac8:	00679833          	sll	a6,a5,t1
80003acc:	00651533          	sll	a0,a0,t1
80003ad0:	01c86833          	or	a6,a6,t3
80003ad4:	00a03533          	snez	a0,a0
80003ad8:	00a86533          	or	a0,a6,a0
80003adc:	00b7d5b3          	srl	a1,a5,a1
80003ae0:	40a60533          	sub	a0,a2,a0
80003ae4:	40b707b3          	sub	a5,a4,a1
80003ae8:	00a63633          	sltu	a2,a2,a0
80003aec:	40c787b3          	sub	a5,a5,a2
80003af0:	00088493          	mv	s1,a7
80003af4:	00068913          	mv	s2,a3
80003af8:	ee5ff06f          	j	800039dc <__subdf3+0x3bc>
80003afc:	fe058813          	addi	a6,a1,-32 # 7fffe0 <__stack_size+0x7effe0>
80003b00:	02000e13          	li	t3,32
80003b04:	0107d833          	srl	a6,a5,a6
80003b08:	00000313          	li	t1,0
80003b0c:	01c58863          	beq	a1,t3,80003b1c <__subdf3+0x4fc>
80003b10:	04000313          	li	t1,64
80003b14:	40b305b3          	sub	a1,t1,a1
80003b18:	00b79333          	sll	t1,a5,a1
80003b1c:	00a36533          	or	a0,t1,a0
80003b20:	00a03533          	snez	a0,a0
80003b24:	00a86533          	or	a0,a6,a0
80003b28:	00000593          	li	a1,0
80003b2c:	fb5ff06f          	j	80003ae0 <__subdf3+0x4c0>
80003b30:	00a7e533          	or	a0,a5,a0
80003b34:	00a03533          	snez	a0,a0
80003b38:	ff1ff06f          	j	80003b28 <__subdf3+0x508>
80003b3c:	00148593          	addi	a1,s1,1
80003b40:	7fe5f593          	andi	a1,a1,2046
80003b44:	08059863          	bnez	a1,80003bd4 <__subdf3+0x5b4>
80003b48:	00a7e833          	or	a6,a5,a0
80003b4c:	00c765b3          	or	a1,a4,a2
80003b50:	06049063          	bnez	s1,80003bb0 <__subdf3+0x590>
80003b54:	00081c63          	bnez	a6,80003b6c <__subdf3+0x54c>
80003b58:	24058c63          	beqz	a1,80003db0 <__subdf3+0x790>
80003b5c:	00070793          	mv	a5,a4
80003b60:	00060513          	mv	a0,a2
80003b64:	00068913          	mv	s2,a3
80003b68:	b71ff06f          	j	800036d8 <__subdf3+0xb8>
80003b6c:	b60586e3          	beqz	a1,800036d8 <__subdf3+0xb8>
80003b70:	40c50833          	sub	a6,a0,a2
80003b74:	010538b3          	sltu	a7,a0,a6
80003b78:	40e785b3          	sub	a1,a5,a4
80003b7c:	411585b3          	sub	a1,a1,a7
80003b80:	00859893          	slli	a7,a1,0x8
80003b84:	0008dc63          	bgez	a7,80003b9c <__subdf3+0x57c>
80003b88:	40a60533          	sub	a0,a2,a0
80003b8c:	40f707b3          	sub	a5,a4,a5
80003b90:	00a63633          	sltu	a2,a2,a0
80003b94:	40c787b3          	sub	a5,a5,a2
80003b98:	fcdff06f          	j	80003b64 <__subdf3+0x544>
80003b9c:	00b86533          	or	a0,a6,a1
80003ba0:	22050063          	beqz	a0,80003dc0 <__subdf3+0x7a0>
80003ba4:	00058793          	mv	a5,a1
80003ba8:	00080513          	mv	a0,a6
80003bac:	b2dff06f          	j	800036d8 <__subdf3+0xb8>
80003bb0:	00081e63          	bnez	a6,80003bcc <__subdf3+0x5ac>
80003bb4:	20058a63          	beqz	a1,80003dc8 <__subdf3+0x7a8>
80003bb8:	00070793          	mv	a5,a4
80003bbc:	00060513          	mv	a0,a2
80003bc0:	00068913          	mv	s2,a3
80003bc4:	7ff00493          	li	s1,2047
80003bc8:	b11ff06f          	j	800036d8 <__subdf3+0xb8>
80003bcc:	fe058ce3          	beqz	a1,80003bc4 <__subdf3+0x5a4>
80003bd0:	d45ff06f          	j	80003914 <__subdf3+0x2f4>
80003bd4:	40c509b3          	sub	s3,a0,a2
80003bd8:	013535b3          	sltu	a1,a0,s3
80003bdc:	40e78433          	sub	s0,a5,a4
80003be0:	40b40433          	sub	s0,s0,a1
80003be4:	00841593          	slli	a1,s0,0x8
80003be8:	0805d463          	bgez	a1,80003c70 <__subdf3+0x650>
80003bec:	40a609b3          	sub	s3,a2,a0
80003bf0:	40f707b3          	sub	a5,a4,a5
80003bf4:	01363633          	sltu	a2,a2,s3
80003bf8:	40c78433          	sub	s0,a5,a2
80003bfc:	00068913          	mv	s2,a3
80003c00:	08040263          	beqz	s0,80003c84 <__subdf3+0x664>
80003c04:	00040513          	mv	a0,s0
80003c08:	308000ef          	jal	ra,80003f10 <__clzsi2>
80003c0c:	ff850713          	addi	a4,a0,-8
80003c10:	01f00793          	li	a5,31
80003c14:	08e7c063          	blt	a5,a4,80003c94 <__subdf3+0x674>
80003c18:	02000793          	li	a5,32
80003c1c:	40e787b3          	sub	a5,a5,a4
80003c20:	00e41433          	sll	s0,s0,a4
80003c24:	00f9d7b3          	srl	a5,s3,a5
80003c28:	0087e433          	or	s0,a5,s0
80003c2c:	00e99533          	sll	a0,s3,a4
80003c30:	0a974463          	blt	a4,s1,80003cd8 <__subdf3+0x6b8>
80003c34:	40970733          	sub	a4,a4,s1
80003c38:	00170793          	addi	a5,a4,1
80003c3c:	01f00693          	li	a3,31
80003c40:	06f6c263          	blt	a3,a5,80003ca4 <__subdf3+0x684>
80003c44:	02000713          	li	a4,32
80003c48:	40f70733          	sub	a4,a4,a5
80003c4c:	00f55633          	srl	a2,a0,a5
80003c50:	00e416b3          	sll	a3,s0,a4
80003c54:	00e51533          	sll	a0,a0,a4
80003c58:	00c6e6b3          	or	a3,a3,a2
80003c5c:	00a03533          	snez	a0,a0
80003c60:	00a6e533          	or	a0,a3,a0
80003c64:	00f457b3          	srl	a5,s0,a5
80003c68:	00000493          	li	s1,0
80003c6c:	a6dff06f          	j	800036d8 <__subdf3+0xb8>
80003c70:	0089e533          	or	a0,s3,s0
80003c74:	f80516e3          	bnez	a0,80003c00 <__subdf3+0x5e0>
80003c78:	00000793          	li	a5,0
80003c7c:	00000493          	li	s1,0
80003c80:	1380006f          	j	80003db8 <__subdf3+0x798>
80003c84:	00098513          	mv	a0,s3
80003c88:	288000ef          	jal	ra,80003f10 <__clzsi2>
80003c8c:	02050513          	addi	a0,a0,32
80003c90:	f7dff06f          	j	80003c0c <__subdf3+0x5ec>
80003c94:	fd850413          	addi	s0,a0,-40
80003c98:	00899433          	sll	s0,s3,s0
80003c9c:	00000513          	li	a0,0
80003ca0:	f91ff06f          	j	80003c30 <__subdf3+0x610>
80003ca4:	fe170713          	addi	a4,a4,-31
80003ca8:	02000613          	li	a2,32
80003cac:	00e45733          	srl	a4,s0,a4
80003cb0:	00000693          	li	a3,0
80003cb4:	00c78863          	beq	a5,a2,80003cc4 <__subdf3+0x6a4>
80003cb8:	04000693          	li	a3,64
80003cbc:	40f686b3          	sub	a3,a3,a5
80003cc0:	00d416b3          	sll	a3,s0,a3
80003cc4:	00d56533          	or	a0,a0,a3
80003cc8:	00a03533          	snez	a0,a0
80003ccc:	00a76533          	or	a0,a4,a0
80003cd0:	00000793          	li	a5,0
80003cd4:	f95ff06f          	j	80003c68 <__subdf3+0x648>
80003cd8:	ff8007b7          	lui	a5,0xff800
80003cdc:	fff78793          	addi	a5,a5,-1 # ff7fffff <__stack_top+0x4b2fffff>
80003ce0:	40e484b3          	sub	s1,s1,a4
80003ce4:	00f477b3          	and	a5,s0,a5
80003ce8:	9f1ff06f          	j	800036d8 <__subdf3+0xb8>
80003cec:	00070793          	mv	a5,a4
80003cf0:	00060513          	mv	a0,a2
80003cf4:	00058493          	mv	s1,a1
80003cf8:	9e1ff06f          	j	800036d8 <__subdf3+0xb8>
80003cfc:	00070793          	mv	a5,a4
80003d00:	00060513          	mv	a0,a2
80003d04:	9d5ff06f          	j	800036d8 <__subdf3+0xb8>
80003d08:	7ff00493          	li	s1,2047
80003d0c:	00000793          	li	a5,0
80003d10:	00000513          	li	a0,0
80003d14:	00879713          	slli	a4,a5,0x8
80003d18:	00075e63          	bgez	a4,80003d34 <__subdf3+0x714>
80003d1c:	00148493          	addi	s1,s1,1
80003d20:	7ff00713          	li	a4,2047
80003d24:	0ae48a63          	beq	s1,a4,80003dd8 <__subdf3+0x7b8>
80003d28:	ff800737          	lui	a4,0xff800
80003d2c:	fff70713          	addi	a4,a4,-1 # ff7fffff <__stack_top+0x4b2fffff>
80003d30:	00e7f7b3          	and	a5,a5,a4
80003d34:	01d79713          	slli	a4,a5,0x1d
80003d38:	00355513          	srli	a0,a0,0x3
80003d3c:	00a76533          	or	a0,a4,a0
80003d40:	7ff00713          	li	a4,2047
80003d44:	0037d793          	srli	a5,a5,0x3
80003d48:	00e49e63          	bne	s1,a4,80003d64 <__subdf3+0x744>
80003d4c:	00f56533          	or	a0,a0,a5
80003d50:	00000793          	li	a5,0
80003d54:	00050863          	beqz	a0,80003d64 <__subdf3+0x744>
80003d58:	000807b7          	lui	a5,0x80
80003d5c:	00000513          	li	a0,0
80003d60:	00000913          	li	s2,0
80003d64:	7ff4f713          	andi	a4,s1,2047
80003d68:	00c79793          	slli	a5,a5,0xc
80003d6c:	01471713          	slli	a4,a4,0x14
80003d70:	01c12083          	lw	ra,28(sp)
80003d74:	01812403          	lw	s0,24(sp)
80003d78:	00c7d793          	srli	a5,a5,0xc
80003d7c:	01f91593          	slli	a1,s2,0x1f
80003d80:	00e7e7b3          	or	a5,a5,a4
80003d84:	00b7e733          	or	a4,a5,a1
80003d88:	01412483          	lw	s1,20(sp)
80003d8c:	01012903          	lw	s2,16(sp)
80003d90:	00c12983          	lw	s3,12(sp)
80003d94:	00070593          	mv	a1,a4
80003d98:	02010113          	addi	sp,sp,32
80003d9c:	00008067          	ret
80003da0:	00070793          	mv	a5,a4
80003da4:	00060513          	mv	a0,a2
80003da8:	00080493          	mv	s1,a6
80003dac:	db9ff06f          	j	80003b64 <__subdf3+0x544>
80003db0:	00000793          	li	a5,0
80003db4:	00000513          	li	a0,0
80003db8:	00000913          	li	s2,0
80003dbc:	f59ff06f          	j	80003d14 <__subdf3+0x6f4>
80003dc0:	00000793          	li	a5,0
80003dc4:	ff5ff06f          	j	80003db8 <__subdf3+0x798>
80003dc8:	00000513          	li	a0,0
80003dcc:	00000913          	li	s2,0
80003dd0:	004007b7          	lui	a5,0x400
80003dd4:	b4dff06f          	j	80003920 <__subdf3+0x300>
80003dd8:	00000793          	li	a5,0
80003ddc:	00000513          	li	a0,0
80003de0:	f55ff06f          	j	80003d34 <__subdf3+0x714>

80003de4 <__fixdfsi>:
80003de4:	0145d713          	srli	a4,a1,0x14
80003de8:	001006b7          	lui	a3,0x100
80003dec:	fff68793          	addi	a5,a3,-1 # fffff <__stack_size+0xeffff>
80003df0:	7ff77713          	andi	a4,a4,2047
80003df4:	3fe00613          	li	a2,1022
80003df8:	00b7f7b3          	and	a5,a5,a1
80003dfc:	01f5d593          	srli	a1,a1,0x1f
80003e00:	04e65e63          	ble	a4,a2,80003e5c <__fixdfsi+0x78>
80003e04:	41d00613          	li	a2,1053
80003e08:	00e65a63          	ble	a4,a2,80003e1c <__fixdfsi+0x38>
80003e0c:	80000537          	lui	a0,0x80000
80003e10:	fff54513          	not	a0,a0
80003e14:	00a58533          	add	a0,a1,a0
80003e18:	00008067          	ret
80003e1c:	00d7e7b3          	or	a5,a5,a3
80003e20:	43300693          	li	a3,1075
80003e24:	40e686b3          	sub	a3,a3,a4
80003e28:	01f00613          	li	a2,31
80003e2c:	02d64063          	blt	a2,a3,80003e4c <__fixdfsi+0x68>
80003e30:	bed70713          	addi	a4,a4,-1043
80003e34:	00e797b3          	sll	a5,a5,a4
80003e38:	00d55533          	srl	a0,a0,a3
80003e3c:	00a7e533          	or	a0,a5,a0
80003e40:	02058063          	beqz	a1,80003e60 <__fixdfsi+0x7c>
80003e44:	40a00533          	neg	a0,a0
80003e48:	00008067          	ret
80003e4c:	41300513          	li	a0,1043
80003e50:	40e50533          	sub	a0,a0,a4
80003e54:	00a7d533          	srl	a0,a5,a0
80003e58:	fe9ff06f          	j	80003e40 <__fixdfsi+0x5c>
80003e5c:	00000513          	li	a0,0
80003e60:	00008067          	ret

80003e64 <__floatsidf>:
80003e64:	ff010113          	addi	sp,sp,-16
80003e68:	00112623          	sw	ra,12(sp)
80003e6c:	00812423          	sw	s0,8(sp)
80003e70:	00912223          	sw	s1,4(sp)
80003e74:	08050463          	beqz	a0,80003efc <__floatsidf+0x98>
80003e78:	41f55793          	srai	a5,a0,0x1f
80003e7c:	00a7c433          	xor	s0,a5,a0
80003e80:	40f40433          	sub	s0,s0,a5
80003e84:	01f55493          	srli	s1,a0,0x1f
80003e88:	00040513          	mv	a0,s0
80003e8c:	084000ef          	jal	ra,80003f10 <__clzsi2>
80003e90:	41e00713          	li	a4,1054
80003e94:	00a00793          	li	a5,10
80003e98:	40a70733          	sub	a4,a4,a0
80003e9c:	04a7c863          	blt	a5,a0,80003eec <__floatsidf+0x88>
80003ea0:	00b00793          	li	a5,11
80003ea4:	40a787b3          	sub	a5,a5,a0
80003ea8:	01550513          	addi	a0,a0,21 # 80000015 <__stack_top+0xcbb00015>
80003eac:	00f457b3          	srl	a5,s0,a5
80003eb0:	00a41433          	sll	s0,s0,a0
80003eb4:	00c79793          	slli	a5,a5,0xc
80003eb8:	7ff77713          	andi	a4,a4,2047
80003ebc:	01471713          	slli	a4,a4,0x14
80003ec0:	00040513          	mv	a0,s0
80003ec4:	00c12083          	lw	ra,12(sp)
80003ec8:	00812403          	lw	s0,8(sp)
80003ecc:	00c7d793          	srli	a5,a5,0xc
80003ed0:	01f49493          	slli	s1,s1,0x1f
80003ed4:	00e7e7b3          	or	a5,a5,a4
80003ed8:	0097e733          	or	a4,a5,s1
80003edc:	00070593          	mv	a1,a4
80003ee0:	00412483          	lw	s1,4(sp)
80003ee4:	01010113          	addi	sp,sp,16
80003ee8:	00008067          	ret
80003eec:	ff550513          	addi	a0,a0,-11
80003ef0:	00a417b3          	sll	a5,s0,a0
80003ef4:	00000413          	li	s0,0
80003ef8:	fbdff06f          	j	80003eb4 <__floatsidf+0x50>
80003efc:	00000793          	li	a5,0
80003f00:	00000413          	li	s0,0
80003f04:	00000713          	li	a4,0
80003f08:	00000493          	li	s1,0
80003f0c:	fa9ff06f          	j	80003eb4 <__floatsidf+0x50>

80003f10 <__clzsi2>:
80003f10:	000107b7          	lui	a5,0x10
80003f14:	02f57a63          	bleu	a5,a0,80003f48 <__clzsi2+0x38>
80003f18:	0ff00793          	li	a5,255
80003f1c:	00a7b7b3          	sltu	a5,a5,a0
80003f20:	00379793          	slli	a5,a5,0x3
80003f24:	02000713          	li	a4,32
80003f28:	40f70733          	sub	a4,a4,a5
80003f2c:	00f557b3          	srl	a5,a0,a5
80003f30:	8001c537          	lui	a0,0x8001c
80003f34:	15850513          	addi	a0,a0,344 # 8001c158 <__stack_top+0xcbb1c158>
80003f38:	00a787b3          	add	a5,a5,a0
80003f3c:	0007c503          	lbu	a0,0(a5) # 10000 <__stack_size>
80003f40:	40a70533          	sub	a0,a4,a0
80003f44:	00008067          	ret
80003f48:	01000737          	lui	a4,0x1000
80003f4c:	01000793          	li	a5,16
80003f50:	fce56ae3          	bltu	a0,a4,80003f24 <__clzsi2+0x14>
80003f54:	01800793          	li	a5,24
80003f58:	fcdff06f          	j	80003f24 <__clzsi2+0x14>
